(lp0
cnumpy.core.multiarray
scalar
p1
(cnumpy
dtype
p2
(S'f8'
p3
I0
I1
tp4
Rp5
(I3
S'<'
p6
NNNI-1
I-1
I0
tp7
bS'\x91\xe6\x86\xdd\xb1\x19%@'
p8
tp9
Rp10
ag10
ag10
ag10
ag10
ag10
ag10
ag1
(g5
S'8kX\x86T\xac$@'
p11
tp12
Rp13
ag13
ag13
ag13
ag13
ag13
ag13
ag13
ag13
ag1
(g5
S'\xb0KS5w\x16*@'
p14
tp15
Rp16
ag16
ag16
ag1
(g5
S'\xdc\xa6X\x90/\x1f%@'
p17
tp18
Rp19
ag1
(g5
S'K\xa3\xdd\x93\xb4\x84&@'
p20
tp21
Rp22
ag22
ag22
ag1
(g5
S'\x92\x8ai\xd2\xb3\x0e$@'
p23
tp24
Rp25
ag1
(g5
S'W\xaa\xaa9\xd22&@'
p26
tp27
Rp28
ag28
ag1
(g5
S"\xdf\xebp[\x81''@"
p29
tp30
Rp31
ag31
ag31
ag1
(g5
S'\x03\n|\x97u\xb5$@'
p32
tp33
Rp34
ag34
ag34
ag34
ag34
ag1
(g5
S'a53\x1c\x06l*@'
p35
tp36
Rp37
ag37
ag37
ag37
ag37
ag1
(g5
S'\x1e\xb8e\xa1\xd4*0@'
p38
tp39
Rp40
ag40
ag1
(g5
S'\xa8\xe8\xdcv\xde\xfe(@'
p41
tp42
Rp43
ag43
ag43
ag1
(g5
S"^\x8a!\x15\x97\xbb'@"
p44
tp45
Rp46
ag46
ag46
ag46
ag46
ag46
ag46
ag46
ag1
(g5
S'Z\xcfcC\xab\x17)@'
p47
tp48
Rp49
ag49
ag1
(g5
S'\x9e\x05H\x04\xa5\x1b)@'
p50
tp51
Rp52
ag52
ag1
(g5
S'>`\x7f/\xb7J!@'
p53
tp54
Rp55
ag55
ag55
ag1
(g5
S'P\xd7\xf6\xa1\xdf4(@'
p56
tp57
Rp58
ag1
(g5
S'Z\xbe5e\x0b\x92\x14@'
p59
tp60
Rp61
ag61
ag61
ag61
ag61
ag61
ag61
ag61
ag61
ag61
ag61
ag61
ag61
ag61
ag61
ag61
ag61
ag61
ag61
ag61
ag1
(g5
S'\xc0\xb9\xe17\x90R\x16@'
p62
tp63
Rp64
ag64
ag1
(g5
S'\xf2\xa1\xbf\x07M>\x1c@'
p65
tp66
Rp67
ag67
ag67
ag67
ag67
ag67
ag67
ag67
ag67
ag1
(g5
S'G8\x90\xa5\xbd\xb2 @'
p68
tp69
Rp70
ag70
ag70
ag70
ag70
ag1
(g5
S'9N\n\xb3\xfdX\x1f@'
p71
tp72
Rp73
ag73
ag73
ag73
ag73
ag73
ag1
(g5
S'\x1f\xfb\x05\x131<\x1b@'
p74
tp75
Rp76
ag1
(g5
S'\xa6\xcdBU\x04S\x1d@'
p77
tp78
Rp79
ag79
ag1
(g5
S'\xc1,(\xedHE @'
p80
tp81
Rp82
ag1
(g5
S'\xaa\x0e5#J\xeb!@'
p83
tp84
Rp85
ag1
(g5
S'\x0e\xb0\x0e\'?o"@'
p86
tp87
Rp88
ag88
ag1
(g5
S"YH\xc8\x0b\xe1\x18'@"
p89
tp90
Rp91
ag91
ag91
ag91
ag1
(g5
S'\x18%&qE\xf0#@'
p92
tp93
Rp94
ag94
ag94
ag94
ag94
ag94
ag94
ag94
ag94
ag94
ag94
ag1
(g5
S'\xd4\x0cu\xb9\x01\xe1%@'
p95
tp96
Rp97
ag97
ag97
ag97
ag97
ag97
ag1
(g5
S'p\xc2H=I\xd2&@'
p98
tp99
Rp100
ag100
ag100
ag100
ag1
(g5
S'\xfa\x14*\x02\x0f\xbc"@'
p101
tp102
Rp103
ag103
ag103
ag1
(g5
S'\xf4\x03TYS\x9a$@'
p104
tp105
Rp106
ag106
ag106
ag106
ag106
ag1
(g5
S'j>}qG\xf2&@'
p107
tp108
Rp109
ag1
(g5
S'\x99\xb0(\xbc\xbf\xba(@'
p110
tp111
Rp112
ag112
ag112
ag1
(g5
S'f\xcb\x9f\x05{\xbf @'
p113
tp114
Rp115
ag115
ag1
(g5
S'Z\x05\xd9{\x93\xd6$@'
p116
tp117
Rp118
ag118
ag118
ag118
ag1
(g5
S"\x13J\xec\r\x8ai'@"
p119
tp120
Rp121
ag121
ag1
(g5
S'\xbb\xb6\xabk\x83\x87\x1b@'
p122
tp123
Rp124
ag124
ag124
ag124
ag1
(g5
S"\x15\xa9\t!|\xf0'@"
p125
tp126
Rp127
ag127
ag127
ag1
(g5
S'\xc4\xe1\x0c{S,\x16@'
p128
tp129
Rp130
ag130
ag130
ag130
ag130
ag130
ag130
ag130
ag130
ag130
ag130
ag130
ag130
ag130
ag130
ag130
ag130
ag130
ag130
ag130
ag130
ag130
ag130
ag130
ag130
ag130
ag130
ag130
ag130
ag130
ag130
ag130
ag130
ag130
ag130
ag130
ag130
ag130
ag130
ag130
ag130
ag1
(g5
S'\x9b\x83\xfc\xb0\xf2\xa2\x1e@'
p131
tp132
Rp133
ag133
ag133
ag133
ag133
ag133
ag133
ag133
ag133
ag133
ag133
ag133
ag133
ag133
ag133
ag1
(g5
S'^\x14\xb8\xc0\xa2\xf1 @'
p134
tp135
Rp136
ag136
ag136
ag1
(g5
S"}p'\x83\xd6\xc1\x1b@"
p137
tp138
Rp139
ag139
ag139
ag1
(g5
S'*\xcc\xbe\xcaN\xf8\x19@'
p140
tp141
Rp142
ag142
ag142
ag142
ag142
ag142
ag142
ag142
ag142
ag142
ag142
ag142
ag142
ag142
ag1
(g5
S'gf\x1c\xbb\x9f\xa0\x18@'
p143
tp144
Rp145
ag145
ag1
(g5
S'\xa9\xb0\r\x12O\x9b!@'
p146
tp147
Rp148
ag148
ag1
(g5
S'\xfc[\xcb_\x89\xcb\x1e@'
p149
tp150
Rp151
ag151
ag151
ag151
ag1
(g5
S'\xb4N\xab\xc4d\x95\x14@'
p152
tp153
Rp154
ag154
ag154
ag154
ag154
ag1
(g5
S'\xde4\xc4\x0f\\5\x17@'
p155
tp156
Rp157
ag157
ag1
(g5
S'\x0cf\x90R\x04\x0e"@'
p158
tp159
Rp160
ag160
ag160
ag160
ag1
(g5
S'\x02\xbe\xed\xfa\x08\xad\x16@'
p161
tp162
Rp163
ag163
ag163
ag163
ag163
ag163
ag163
ag163
ag163
ag163
ag163
ag163
ag163
ag163
ag163
ag1
(g5
S'\xb5\x89\xc6\xd3+\n\x17@'
p164
tp165
Rp166
ag166
ag166
ag166
ag166
ag166
ag166
ag166
ag1
(g5
S'\xebD\xb3\x90\x84\xef @'
p167
tp168
Rp169
ag169
ag1
(g5
S'\x1co\xce\x91\nG\x1b@'
p170
tp171
Rp172
ag172
ag172
ag172
ag172
ag172
ag172
ag172
ag172
ag1
(g5
S'/[\x0eZ\x89\x1b\x1e@'
p173
tp174
Rp175
ag175
ag175
ag175
ag1
(g5
S'\xe8\xe2YFz\xa6\x17@'
p176
tp177
Rp178
ag178
ag178
ag178
ag1
(g5
S'R\xc2Ag\x85\x1f)@'
p179
tp180
Rp181
ag181
ag181
ag181
ag1
(g5
S'0*\xae\x8bbI\x13@'
p182
tp183
Rp184
ag184
ag184
ag184
ag184
ag184
ag184
ag184
ag184
ag184
ag184
ag184
ag184
ag184
ag184
ag184
ag184
ag184
ag184
ag184
ag184
ag184
ag184
ag184
ag184
ag184
ag184
ag184
ag184
ag184
ag184
ag184
ag1
(g5
S'\xd6L,u\xf0\xba\x13@'
p185
tp186
Rp187
ag187
ag187
ag187
ag187
ag187
ag187
ag187
ag187
ag187
ag187
ag187
ag187
ag187
ag187
ag187
ag187
ag187
ag187
ag187
ag187
ag1
(g5
S'\x83a\x7f\x1b\xca\xa8\x17@'
p188
tp189
Rp190
ag190
ag190
ag190
ag190
ag190
ag190
ag190
ag190
ag190
ag190
ag190
ag1
(g5
S'_\x93\n\xeaf\x9f\x14@'
p191
tp192
Rp193
ag193
ag193
ag193
ag193
ag193
ag193
ag193
ag193
ag1
(g5
S"\xfew\x07'\x97\xce\x11@"
p194
tp195
Rp196
ag196
ag1
(g5
S'\xbd0\x05\xe3\xcf\xc2\x19@'
p197
tp198
Rp199
ag1
(g5
S'\x0c\nHg\xa8\xec\x1b@'
p200
tp201
Rp202
ag202
ag202
ag202
ag202
ag202
ag202
ag202
ag202
ag202
ag202
ag202
ag202
ag202
ag202
ag202
ag202
ag202
ag202
ag202
ag202
ag202
ag202
ag202
ag202
ag1
(g5
S'\xcdY\\\xe3\xcdQ\x15@'
p203
tp204
Rp205
ag205
ag205
ag205
ag205
ag205
ag205
ag1
(g5
S'.\xfa\xd1ij\xad\x14@'
p206
tp207
Rp208
ag208
ag208
ag208
ag208
ag208
ag208
ag208
ag208
ag208
ag208
ag1
(g5
S'\xc6zd\xe4v]\x12@'
p209
tp210
Rp211
ag1
(g5
S'\xc4.\xaa\x1d\x9d\xc4\x1b@'
p212
tp213
Rp214
ag214
ag214
ag214
ag214
ag214
ag214
ag214
ag214
ag214
ag214
ag214
ag214
ag1
(g5
S'Lm\x82~\xc8\xa8\x11@'
p215
tp216
Rp217
ag217
ag217
ag217
ag217
ag217
ag217
ag217
ag217
ag217
ag217
ag217
ag217
ag217
ag217
ag217
ag217
ag217
ag217
ag217
ag217
ag217
ag217
ag217
ag217
ag217
ag217
ag217
ag217
ag217
ag217
ag217
ag217
ag217
ag217
ag217
ag217
ag217
ag217
ag217
ag217
ag217
ag217
ag217
ag217
ag217
ag217
ag217
ag217
ag217
ag1
(g5
S'\xfa\x11\x9bZ%Y\x0c@'
p218
tp219
Rp220
ag220
ag220
ag220
ag220
ag220
ag220
ag220
ag220
ag220
ag220
ag220
ag220
ag220
ag220
ag220
ag1
(g5
S'\xeb\xf6^\xd2q*\x0f@'
p221
tp222
Rp223
ag223
ag223
ag223
ag223
ag223
ag223
ag223
ag223
ag223
ag223
ag223
ag223
ag223
ag1
(g5
S'\x1b\x9f\x81r\xd2\xa0\x15@'
p224
tp225
Rp226
ag226
ag226
ag226
ag226
ag226
ag226
ag226
ag226
ag226
ag226
ag226
ag1
(g5
S'\xaa1"\x99uE\x1e@'
p227
tp228
Rp229
ag229
ag229
ag1
(g5
S'\x19\xc2\xd9\x9f\x91(\x14@'
p230
tp231
Rp232
ag232
ag232
ag232
ag232
ag232
ag232
ag232
ag232
ag232
ag232
ag232
ag232
ag1
(g5
S'\xeaO\xcb\x12\xecx\x16@'
p233
tp234
Rp235
ag235
ag235
ag235
ag235
ag235
ag235
ag235
ag235
ag235
ag235
ag235
ag235
ag235
ag235
ag235
ag235
ag235
ag235
ag235
ag235
ag235
ag235
ag1
(g5
S'}\xbf\xcec\xc8\x97\x12@'
p236
tp237
Rp238
ag238
ag238
ag238
ag238
ag238
ag238
ag238
ag238
ag238
ag238
ag238
ag238
ag238
ag238
ag238
ag238
ag238
ag238
ag238
ag238
ag238
ag1
(g5
S'\x88!{\xadK\xf0\x0e@'
p239
tp240
Rp241
ag241
ag241
ag241
ag241
ag241
ag241
ag241
ag241
ag241
ag241
ag241
ag241
ag241
ag1
(g5
S'k\x06)\x03zR\x12@'
p242
tp243
Rp244
ag244
ag244
ag244
ag244
ag244
ag244
ag1
(g5
S'\xca\x13\xce\xf2\xd08\x14@'
p245
tp246
Rp247
ag247
ag247
ag247
ag247
ag247
ag247
ag247
ag247
ag1
(g5
S"i\xd6\xe6\xa0'@\x11@"
p248
tp249
Rp250
ag250
ag250
ag250
ag250
ag250
ag250
ag250
ag250
ag250
ag250
ag1
(g5
S'"U\x9a\x99?\xb6\x16@'
p251
tp252
Rp253
ag253
ag253
ag253
ag253
ag253
ag1
(g5
S'\xd8\xe6\x89\xf1Lt\x19@'
p254
tp255
Rp256
ag256
ag256
ag256
ag256
ag256
ag256
ag256
ag1
(g5
S'\x0b\xb8\xc0\xc9\xe7.\x1c@'
p257
tp258
Rp259
ag259
ag259
ag259
ag259
ag259
ag259
ag1
(g5
S'\x10\xe9F\xa3\xa8f\x1c@'
p260
tp261
Rp262
ag1
(g5
S':9\x04\x00\x7f\x95\x1c@'
p263
tp264
Rp265
ag1
(g5
S'O\x84\xe8=\xd5\x04\x1f@'
p266
tp267
Rp268
ag268
ag268
ag268
ag268
ag268
ag268
ag268
ag268
ag1
(g5
S'\xb9o<>\xbb\x8e\x19@'
p269
tp270
Rp271
ag271
ag271
ag271
ag271
ag271
ag271
ag1
(g5
S'\xd8\xc39\xf7\xfe\xae$@'
p272
tp273
Rp274
ag1
(g5
S'\x03U\r\x1b\r\xcc$@'
p275
tp276
Rp277
ag277
ag277
ag277
ag277
ag277
ag277
ag1
(g5
S'b\x1f-\x80\xcf\x19\x16@'
p278
tp279
Rp280
ag1
(g5
S'\x96\xa6\xed\xca\x80\xa2\t@'
p281
tp282
Rp283
ag283
ag283
ag283
ag283
ag283
ag283
ag283
ag283
ag283
ag283
ag283
ag283
ag283
ag283
ag283
ag283
ag283
ag283
ag283
ag283
ag283
ag283
ag283
ag283
ag283
ag283
ag283
ag283
ag283
ag283
ag283
ag283
ag283
ag283
ag283
ag283
ag283
ag283
ag283
ag283
ag283
ag283
ag283
ag283
ag1
(g5
S'\x86E\x81\x82_\n2@'
p284
tp285
Rp286
ag286
ag286
ag286
ag286
ag1
(g5
S'\x0fi\xb5h\x93\xfb(@'
p287
tp288
Rp289
ag1
(g5
S"\xc2'w\t{\xa7#@"
p290
tp291
Rp292
ag292
ag292
ag292
ag292
ag292
ag1
(g5
S'\x88\xa5`\xad\xddz @'
p293
tp294
Rp295
ag1
(g5
S'\x10\x8db\xf4\x98\x1a!@'
p296
tp297
Rp298
ag298
ag1
(g5
S'\xdf"\x886\xf6\xf5 @'
p299
tp300
Rp301
ag301
ag301
ag301
ag1
(g5
S'\x0eM,m\x9a\xda\x12@'
p302
tp303
Rp304
ag304
ag304
ag304
ag304
ag1
(g5
S'\xfe\x00\xcf\xe9\xd7u\x16@'
p305
tp306
Rp307
ag307
ag307
ag1
(g5
S'G\xcb\xdc\x88\xbe\x05"@'
p308
tp309
Rp310
ag310
ag310
ag1
(g5
S'1"\xb8\xb9\'\x0c\x1c@'
p311
tp312
Rp313
ag1
(g5
S'm7\x99\xaf\x98\x93\x1c@'
p314
tp315
Rp316
ag1
(g5
S'}\xec\xd01\x80u#@'
p317
tp318
Rp319
ag1
(g5
S'CM\x1c\x1b}T%@'
p320
tp321
Rp322
ag1
(g5
S'\x0c\x12\xcc$\x1d\xc8!@'
p323
tp324
Rp325
ag325
ag325
ag325
ag325
ag1
(g5
S']\xa1\xa8gg\xee\x19@'
p326
tp327
Rp328
ag328
ag328
ag328
ag328
ag328
ag328
ag328
ag1
(g5
S'(\x84\x013\rO#@'
p329
tp330
Rp331
ag331
ag331
ag1
(g5
S'\xc2\xc4\x8b\x08\x18\x02\x1e@'
p332
tp333
Rp334
ag334
ag334
ag334
ag334
ag334
ag334
ag334
ag334
ag334
ag334
ag334
ag334
ag334
ag334
ag334
ag334
ag334
ag334
ag334
ag334
ag1
(g5
S't\x9a^\xc8%\xf4!@'
p335
tp336
Rp337
ag337
ag337
ag1
(g5
S'\xd2\xd7\xf6\xe2CT\x15@'
p338
tp339
Rp340
ag340
ag340
ag340
ag340
ag340
ag340
ag340
ag340
ag340
ag340
ag340
ag340
ag340
ag340
ag340
ag340
ag340
ag340
ag340
ag340
ag340
ag340
ag340
ag340
ag340
ag340
ag340
ag340
ag340
ag340
ag340
ag340
ag340
ag340
ag1
(g5
S'\x00\xcb\x0ft\x9a~\x12@'
p341
tp342
Rp343
ag343
ag1
(g5
S'\xef^\x1b~E\xf8 @'
p344
tp345
Rp346
ag346
ag346
ag346
ag346
ag346
ag346
ag346
ag346
ag346
ag346
ag346
ag346
ag1
(g5
S'\x0b\xed\tlkN\x1f@'
p347
tp348
Rp349
ag349
ag1
(g5
S'v p\xcd\xf9\xbc\x12@'
p350
tp351
Rp352
ag352
ag352
ag352
ag352
ag352
ag352
ag352
ag352
ag352
ag352
ag352
ag352
ag352
ag352
ag352
ag352
ag352
ag352
ag352
ag352
ag352
ag352
ag352
ag352
ag352
ag352
ag352
ag352
ag352
ag352
ag352
ag352
ag352
ag352
ag352
ag352
ag1
(g5
S'oc\x10\x19P7#@'
p353
tp354
Rp355
ag355
ag355
ag355
ag1
(g5
S'.R\x07\r\xcdy\x1d@'
p356
tp357
Rp358
ag358
ag358
ag1
(g5
S'A\x1e\xcf%W\x97\x1b@'
p359
tp360
Rp361
ag361
ag361
ag361
ag361
ag1
(g5
S'\xcbyJ\x7f?B!@'
p362
tp363
Rp364
ag364
ag364
ag364
ag1
(g5
S'h\x838&L\xe4\x14@'
p365
tp366
Rp367
ag367
ag367
ag367
ag1
(g5
S'\xebG\xa1MYo/@'
p368
tp369
Rp370
ag370
ag370
ag370
ag1
(g5
S'T\x10>h\xd2\x9b.@'
p371
tp372
Rp373
ag373
ag373
ag373
ag1
(g5
S'\xd4|\xd4\x8d\x0e\xf8)@'
p374
tp375
Rp376
ag376
ag376
ag1
(g5
S'\x82\x96\xca;]\xd9)@'
p377
tp378
Rp379
ag1
(g5
S'N\xfa\x99\xb4\x0b\xda%@'
p380
tp381
Rp382
ag382
ag1
(g5
S"\xf8'\xc8\xe2$=*@"
p383
tp384
Rp385
ag385
ag385
ag1
(g5
S'Z\x93\xab\xe6\x88Q @'
p386
tp387
Rp388
ag388
ag388
ag388
ag388
ag388
ag388
ag388
ag388
ag388
ag388
ag388
ag388
ag388
ag388
ag1
(g5
S' \x85\xd7\xdfOk#@'
p389
tp390
Rp391
ag391
ag391
ag391
ag391
ag391
ag1
(g5
S'\x90P\xae\xaa\x18\x01\x19@'
p392
tp393
Rp394
ag394
ag394
ag394
ag394
ag394
ag394
ag394
ag394
ag394
ag394
ag394
ag394
ag394
ag394
ag394
ag394
ag394
ag394
ag394
ag394
ag394
ag1
(g5
S'\xa2\xd1\xfb+\xeb\xb3\x1f@'
p395
tp396
Rp397
ag397
ag397
ag397
ag397
ag397
ag397
ag397
ag397
ag1
(g5
S'&\x12F\xbb."#@'
p398
tp399
Rp400
ag400
ag400
ag400
ag400
ag400
ag1
(g5
S'\x93\xb2\xc2c>=$@'
p401
tp402
Rp403
ag1
(g5
S'\x8bL\x94a\x1d\x07!@'
p404
tp405
Rp406
ag406
ag406
ag406
ag406
ag406
ag406
ag1
(g5
S'As\xba_^\xc6 @'
p407
tp408
Rp409
ag409
ag409
ag409
ag409
ag409
ag409
ag409
ag409
ag409
ag409
ag1
(g5
S'\x92\xb3\x94MA\x08#@'
p410
tp411
Rp412
ag1
(g5
S'\x9b]\xb6@\xd9\x10"@'
p413
tp414
Rp415
ag415
ag1
(g5
S'\xfa\xe5A\xbf\x8es#@'
p416
tp417
Rp418
ag1
(g5
S'k\xac \x81\xd4\x82%@'
p419
tp420
Rp421
ag1
(g5
S'F&\xb1]\x85\x98\x11@'
p422
tp423
Rp424
ag424
ag1
(g5
S'\xbd$\xaeU\\\x12\x17@'
p425
tp426
Rp427
ag427
ag427
ag427
ag427
ag427
ag427
ag427
ag427
ag427
ag427
ag427
ag427
ag427
ag427
ag427
ag427
ag427
ag427
ag427
ag427
ag1
(g5
S'\x1cO\x04\xfc\xd96\x15@'
p428
tp429
Rp430
ag430
ag430
ag430
ag430
ag430
ag430
ag430
ag430
ag430
ag430
ag430
ag430
ag430
ag430
ag430
ag430
ag430
ag430
ag1
(g5
S'i5\xf4\\j>\x1a@'
p431
tp432
Rp433
ag433
ag433
ag433
ag433
ag433
ag433
ag433
ag433
ag433
ag433
ag433
ag1
(g5
S'Y;\xa9\x01-\xb4\x1d@'
p434
tp435
Rp436
ag1
(g5
S'\xa8.\xb7\x0fM\xaf\x16@'
p437
tp438
Rp439
ag439
ag439
ag439
ag439
ag439
ag439
ag439
ag439
ag439
ag439
ag439
ag439
ag439
ag439
ag439
ag439
ag439
ag439
ag439
ag439
ag439
ag439
ag439
ag1
(g5
S'E\xe9\xac\xc1J\xc0 @'
p440
tp441
Rp442
ag1
(g5
S'OC`{\x91\xc6\x19@'
p443
tp444
Rp445
ag445
ag445
ag1
(g5
S'\x008\x8e\x88#|\x1b@'
p446
tp447
Rp448
ag448
ag448
ag1
(g5
S"~'\x986\x99\x94 @"
p449
tp450
Rp451
ag451
ag451
ag451
ag451
ag451
ag451
ag451
ag451
ag451
ag1
(g5
S'x\xa31\xbbn}$@'
p452
tp453
Rp454
ag454
ag454
ag1
(g5
S'>\xf8=\x9f\xa9\xf4\x1e@'
p455
tp456
Rp457
ag1
(g5
S'\x1d>7y\xe5S\x1b@'
p458
tp459
Rp460
ag460
ag460
ag460
ag460
ag460
ag460
ag460
ag460
ag460
ag1
(g5
S'd\x9d\x8e6~\xe2\x17@'
p461
tp462
Rp463
ag463
ag463
ag1
(g5
S'\xc4\xbf\xcde\xe6\xed\x1b@'
p464
tp465
Rp466
ag466
ag466
ag466
ag1
(g5
S'~\xe6\x18-\xa2#\x1f@'
p467
tp468
Rp469
ag469
ag469
ag469
ag469
ag469
ag1
(g5
S'\x96Yo\xaa\xdb!\x1f@'
p470
tp471
Rp472
ag472
ag472
ag472
ag472
ag472
ag472
ag472
ag472
ag472
ag472
ag1
(g5
S'\x91\x9d\xb0!\xb1\xc1\x12@'
p473
tp474
Rp475
ag475
ag475
ag475
ag475
ag475
ag475
ag475
ag475
ag475
ag475
ag475
ag475
ag475
ag475
ag475
ag475
ag475
ag475
ag1
(g5
S'\xe1\xb9\xbc\xb4-a\x1d@'
p476
tp477
Rp478
ag478
ag478
ag478
ag478
ag478
ag478
ag478
ag478
ag478
ag478
ag478
ag478
ag1
(g5
S'F7%\xf6sC\x1f@'
p479
tp480
Rp481
ag481
ag481
ag481
ag1
(g5
S'\xec\x7f\x04\xd5$\xb4\x1f@'
p482
tp483
Rp484
ag484
ag484
ag484
ag1
(g5
S'0\xa4\x9b:\xafo\x1b@'
p485
tp486
Rp487
ag487
ag487
ag487
ag1
(g5
S'\xa8\x9f`\x87\x0f\xb6\x1b@'
p488
tp489
Rp490
ag490
ag490
ag490
ag490
ag490
ag490
ag1
(g5
S'J\x8fK\r\xda\x89\x17@'
p491
tp492
Rp493
ag493
ag493
ag493
ag493
ag493
ag493
ag1
(g5
S'\x99\t\x82\xe6\x07\xbb\x18@'
p494
tp495
Rp496
ag496
ag496
ag496
ag496
ag496
ag496
ag496
ag496
ag496
ag496
ag1
(g5
S'l8\xaf1\x87X\x1d@'
p497
tp498
Rp499
ag499
ag499
ag499
ag499
ag1
(g5
S'\xa2\xb3\x8csl_\x16@'
p500
tp501
Rp502
ag502
ag502
ag502
ag1
(g5
S'.\xa9K\xda!\xe9\x1c@'
p503
tp504
Rp505
ag505
ag505
ag505
ag1
(g5
S',\x19Y\xe2{\xe8\x10@'
p506
tp507
Rp508
ag508
ag508
ag508
ag508
ag508
ag508
ag508
ag508
ag508
ag508
ag508
ag508
ag508
ag508
ag508
ag508
ag508
ag508
ag508
ag508
ag1
(g5
S'\x8fd\xba+\xbd\x9e\x15@'
p509
tp510
Rp511
ag511
ag511
ag511
ag511
ag511
ag511
ag511
ag511
ag511
ag1
(g5
S'\x82\xdd\xa2Db{\x1e@'
p512
tp513
Rp514
ag514
ag514
ag1
(g5
S'v\x02\xa9\xf3g\x0e$@'
p515
tp516
Rp517
ag1
(g5
S'7e`\xa7r\xb6\x16@'
p518
tp519
Rp520
ag520
ag520
ag520
ag520
ag520
ag520
ag520
ag520
ag520
ag1
(g5
S'\x1c <`\x9c\xe2\x1d@'
p521
tp522
Rp523
ag523
ag523
ag523
ag523
ag1
(g5
S'\xf9P\x87?X\xf7\x1b@'
p524
tp525
Rp526
ag526
ag526
ag526
ag526
ag526
ag526
ag526
ag526
ag526
ag526
ag526
ag526
ag526
ag526
ag526
ag526
ag526
ag1
(g5
S'\xbf\xeb\x9e\xa7*\xce%@'
p527
tp528
Rp529
ag1
(g5
S'l\xae\xa0H\x0fc\x1e@'
p530
tp531
Rp532
ag532
ag532
ag532
ag532
ag532
ag532
ag532
ag532
ag532
ag532
ag532
ag532
ag532
ag532
ag532
ag1
(g5
S'IB\x14A\xef\x0e\x14@'
p533
tp534
Rp535
ag535
ag535
ag535
ag535
ag535
ag535
ag535
ag535
ag535
ag535
ag535
ag535
ag535
ag535
ag535
ag535
ag535
ag535
ag535
ag535
ag535
ag535
ag535
ag535
ag535
ag535
ag535
ag535
ag535
ag535
ag535
ag535
ag535
ag1
(g5
S'xBG",\\\x19@'
p536
tp537
Rp538
ag1
(g5
S'\x9f8\xba6\xfb\x81\x1b@'
p539
tp540
Rp541
ag1
(g5
S'\xbd\x94\xfa\x16\x03r$@'
p542
tp543
Rp544
ag1
(g5
S'\xc49\xf0\x91\xa0u\x12@'
p545
tp546
Rp547
ag547
ag547
ag547
ag547
ag547
ag547
ag547
ag547
ag547
ag547
ag547
ag547
ag1
(g5
S'3\x9eV\x14x\xd6\x17@'
p548
tp549
Rp550
ag550
ag550
ag1
(g5
S'\xf0\x95\xacZL\xc3\x17@'
p551
tp552
Rp553
ag553
ag553
ag553
ag553
ag1
(g5
S'\xc0C\xd0t\xa1+\x13@'
p554
tp555
Rp556
ag1
(g5
S'\x1d\rn*m\xff\x18@'
p557
tp558
Rp559
ag559
ag559
ag559
ag559
ag559
ag1
(g5
S'ap\x0c\xfe!\xcd\x15@'
p560
tp561
Rp562
ag562
ag1
(g5
S'\x169e\xebVL\x17@'
p563
tp564
Rp565
ag565
ag565
ag565
ag565
ag565
ag1
(g5
S'z\xd6\xa2\xdf!\xad\r@'
p566
tp567
Rp568
ag568
ag568
ag568
ag568
ag568
ag568
ag568
ag568
ag568
ag568
ag568
ag568
ag568
ag568
ag568
ag568
ag568
ag568
ag568
ag568
ag568
ag568
ag568
ag568
ag568
ag568
ag568
ag568
ag568
ag568
ag568
ag568
ag568
ag568
ag568
ag568
ag568
ag568
ag568
ag568
ag568
ag568
ag568
ag568
ag568
ag568
ag568
ag568
ag568
ag568
ag568
ag568
ag568
ag568
ag568
ag568
ag1
(g5
S'\x81\xaa-\xd29\xf7\x10@'
p569
tp570
Rp571
ag571
ag571
ag571
ag571
ag571
ag571
ag1
(g5
S'\xca\xdd0\xe6\x8d\x99\x1c@'
p572
tp573
Rp574
ag574
ag574
ag574
ag574
ag1
(g5
S'\x0b\x10\xb9\x1c\xf3\xd6\x15@'
p575
tp576
Rp577
ag577
ag577
ag577
ag577
ag577
ag577
ag577
ag577
ag1
(g5
S'\n.SQ\xa0\x8b\x06@'
p578
tp579
Rp580
ag580
ag580
ag580
ag580
ag580
ag580
ag580
ag580
ag580
ag580
ag580
ag580
ag580
ag580
ag580
ag580
ag580
ag580
ag580
ag580
ag580
ag580
ag580
ag580
ag580
ag580
ag580
ag580
ag1
(g5
S'N\x8e\xcbjjU\x13@'
p581
tp582
Rp583
ag583
ag583
ag1
(g5
S'8a\xac\x9c\x82\x88\x10@'
p584
tp585
Rp586
ag586
ag586
ag586
ag586
ag586
ag586
ag586
ag586
ag586
ag586
ag586
ag586
ag586
ag586
ag586
ag586
ag586
ag586
ag586
ag586
ag1
(g5
S'\x07]c\xfbC\x9e\x11@'
p587
tp588
Rp589
ag589
ag589
ag589
ag589
ag589
ag589
ag1
(g5
S'nY\x19\xd2\xa8\xba\x12@'
p590
tp591
Rp592
ag592
ag592
ag592
ag592
ag592
ag592
ag592
ag592
ag592
ag592
ag592
ag592
ag592
ag592
ag592
ag592
ag592
ag1
(g5
S'?\x90HO\xee\x7f\x18@'
p593
tp594
Rp595
ag595
ag595
ag1
(g5
S'\xdan\xac\x049l\x14@'
p596
tp597
Rp598
ag598
ag598
ag598
ag598
ag598
ag598
ag598
ag598
ag598
ag598
ag598
ag598
ag598
ag598
ag598
ag598
ag598
ag598
ag598
ag598
ag598
ag598
ag598
ag598
ag598
ag598
ag598
ag598
ag598
ag598
ag1
(g5
S'\xcai@}\xcf\xe0\x13@'
p599
tp600
Rp601
ag601
ag601
ag601
ag601
ag601
ag601
ag601
ag601
ag601
ag601
ag601
ag601
ag601
ag601
ag601
ag601
ag601
ag601
ag601
ag601
ag601
ag601
ag601
ag1
(g5
S'\xc1\x95\x03\x19\x89\x94\x1a@'
p602
tp603
Rp604
ag604
ag604
ag604
ag604
ag604
ag1
(g5
S'\xc8\x00\x0f\x9f\xc1\xf8\x18@'
p605
tp606
Rp607
ag607
ag607
ag607
ag607
ag607
ag607
ag607
ag607
ag607
ag607
ag607
ag607
ag607
ag607
ag607
ag607
ag1
(g5
S'&Ev\xfa\xc4D\x1c@'
p608
tp609
Rp610
ag610
ag610
ag610
ag610
ag610
ag610
ag610
ag610
ag1
(g5
S'\xffE\x91\xbdW\xc2\x19@'
p611
tp612
Rp613
ag613
ag613
ag613
ag613
ag613
ag1
(g5
S'\xbd\xf2f\xce\xd7\xd8$@'
p614
tp615
Rp616
ag616
ag616
ag616
ag616
ag616
ag616
ag616
ag616
ag1
(g5
S';\xd7n\x83\x00\xf8\x17@'
p617
tp618
Rp619
ag619
ag619
ag619
ag619
ag619
ag1
(g5
S'eN\xdb\xfbr\xde\x15@'
p620
tp621
Rp622
ag622
ag622
ag622
ag622
ag622
ag1
(g5
S'\xf1x\x93\xb0"\x13\x12@'
p623
tp624
Rp625
ag625
ag625
ag625
ag1
(g5
S'\x02\xe1\xbbOr\xa8\x10@'
p626
tp627
Rp628
ag628
ag628
ag628
ag628
ag628
ag628
ag628
ag628
ag628
ag628
ag628
ag1
(g5
S'\x85\xe3\x83p\x92n\x17@'
p629
tp630
Rp631
ag631
ag631
ag631
ag631
ag631
ag631
ag631
ag631
ag1
(g5
S'zrf(\x14\xbd\x14@'
p632
tp633
Rp634
ag634
ag634
ag634
ag634
ag634
ag634
ag634
ag634
ag634
ag634
ag634
ag634
ag1
(g5
S'\x04\x87\x1d^\xe6\x92\x0c@'
p635
tp636
Rp637
ag637
ag637
ag637
ag637
ag1
(g5
S'\xa4\xe9H\xbe*2\x08@'
p638
tp639
Rp640
ag640
ag640
ag640
ag640
ag640
ag640
ag640
ag640
ag640
ag640
ag1
(g5
S'\xb2[>g\xb4\xfa\x16@'
p641
tp642
Rp643
ag643
ag1
(g5
S'b\x0f\xbf\xd3\xeb(\x18@'
p644
tp645
Rp646
ag646
ag646
ag646
ag646
ag646
ag646
ag646
ag646
ag646
ag646
ag646
ag646
ag646
ag646
ag646
ag646
ag646
ag646
ag646
ag646
ag1
(g5
S'\xc8\x00\xe1\x83\xd8K\t@'
p647
tp648
Rp649
ag649
ag1
(g5
S"jy\xcb-';\x17@"
p650
tp651
Rp652
ag652
ag652
ag652
ag652
ag652
ag652
ag652
ag652
ag1
(g5
S'\x12"\x10\xa0j\x0c @'
p653
tp654
Rp655
ag655
ag1
(g5
S'm\x16<Y\r\x82\x13@'
p656
tp657
Rp658
ag658
ag658
ag658
ag658
ag658
ag658
ag658
ag658
ag658
ag658
ag658
ag658
ag658
ag1
(g5
S'\xbd/\x19\xc1\x02\xe6\x13@'
p659
tp660
Rp661
ag1
(g5
S'\x9b(7\xf3\xe7=\x12@'
p662
tp663
Rp664
ag664
ag664
ag664
ag664
ag664
ag664
ag664
ag664
ag664
ag664
ag664
ag664
ag664
ag664
ag664
ag664
ag664
ag664
ag664
ag664
ag664
ag1
(g5
S'B7@~BO\x15@'
p665
tp666
Rp667
ag667
ag667
ag667
ag667
ag667
ag1
(g5
S'\x96\x11\x86\x18\x1a\x9b\x19@'
p668
tp669
Rp670
ag1
(g5
S';\xc9\xfe\x0f\xf1\xcf @'
p671
tp672
Rp673
ag673
ag673
ag673
ag673
ag673
ag673
ag673
ag673
ag673
ag673
ag673
ag673
ag673
ag673
ag1
(g5
S'H\x9d+!I\x83\x19@'
p674
tp675
Rp676
ag1
(g5
S'\xe8\xf9w\xebQ\xbc0@'
p677
tp678
Rp679
ag679
ag679
ag1
(g5
S'\xdd\xa9.\xed\xe7\xe9\x1e@'
p680
tp681
Rp682
ag682
ag682
ag1
(g5
S'\xc9\xa2\xe3\xb8#\x0f!@'
p683
tp684
Rp685
ag685
ag685
ag685
ag685
ag685
ag685
ag1
(g5
S'\xbc\x1e\x06\xeb\xb5P"@'
p686
tp687
Rp688
ag1
(g5
S'\x1e\xc2\x87\xc3\xdel\x14@'
p689
tp690
Rp691
ag691
ag691
ag691
ag691
ag691
ag691
ag1
(g5
S'k;|\xbc\xcf\xd6*@'
p692
tp693
Rp694
ag694
ag694
ag694
ag1
(g5
S' \x8d\xe50;\x82$@'
p695
tp696
Rp697
ag697
ag697
ag697
ag697
ag1
(g5
S'O\x98\xf6\xe2\x1b3\x1a@'
p698
tp699
Rp700
ag700
ag700
ag700
ag700
ag700
ag700
ag1
(g5
S'A\x95\xb5\xa2X\xe1\x1a@'
p701
tp702
Rp703
ag703
ag703
ag703
ag703
ag703
ag703
ag703
ag703
ag703
ag703
ag703
ag703
ag703
ag703
ag703
ag703
ag703
ag703
ag703
ag1
(g5
S"r\xba\x14\xb1\xf2'\x17@"
p704
tp705
Rp706
ag706
ag706
ag706
ag1
(g5
S'\xecO\xae\xc9\xb5\x7f\x11@'
p707
tp708
Rp709
ag709
ag709
ag709
ag709
ag709
ag709
ag709
ag709
ag709
ag709
ag709
ag709
ag709
ag709
ag709
ag1
(g5
S'itB:\x9e\x1d\x10@'
p710
tp711
Rp712
ag712
ag712
ag712
ag712
ag712
ag712
ag712
ag712
ag712
ag712
ag712
ag712
ag712
ag712
ag712
ag712
ag712
ag712
ag712
ag712
ag712
ag712
ag712
ag712
ag712
ag712
ag712
ag712
ag712
ag712
ag712
ag712
ag712
ag712
ag712
ag712
ag712
ag712
ag712
ag712
ag712
ag712
ag712
ag712
ag712
ag712
ag712
ag712
ag712
ag712
ag712
ag712
ag1
(g5
S'\xf6\x98g\x8a\xf7\xdf\x16@'
p713
tp714
Rp715
ag715
ag715
ag1
(g5
S'\x98\x8f\xb5\x93\xb7\xdf\x17@'
p716
tp717
Rp718
ag718
ag718
ag718
ag718
ag718
ag718
ag718
ag718
ag718
ag718
ag718
ag718
ag1
(g5
S'\x08\xecy/\xd5\xf0\x1c@'
p719
tp720
Rp721
ag721
ag1
(g5
S';u\x98\r\xb3_\x19@'
p722
tp723
Rp724
ag724
ag724
ag724
ag724
ag1
(g5
S'\xb1(\xfb[\x8d\x8f\r@'
p725
tp726
Rp727
ag727
ag727
ag727
ag727
ag727
ag1
(g5
S'\x0c\x97?\x8bz\xb4\x16@'
p728
tp729
Rp730
ag1
(g5
S'\xa7E\x1b%\xb5d\x12@'
p731
tp732
Rp733
ag733
ag733
ag733
ag733
ag733
ag733
ag733
ag733
ag1
(g5
S'/\xf0\x85\xb4)\xdd\x0c@'
p734
tp735
Rp736
ag736
ag736
ag736
ag736
ag736
ag736
ag736
ag736
ag736
ag736
ag736
ag736
ag736
ag736
ag736
ag736
ag736
ag736
ag736
ag736
ag736
ag736
ag1
(g5
S'\xb2\x9e\xe9d\x1b\xc2#@'
p737
tp738
Rp739
ag739
ag739
ag739
ag739
ag739
ag739
ag739
ag1
(g5
S'\x96\x1dt\xbeSz\x17@'
p740
tp741
Rp742
ag742
ag1
(g5
S'\xbd^-\xb0\xe4\x0f\x17@'
p743
tp744
Rp745
ag745
ag1
(g5
S'%G\x80\x9c\xb1\x83\x18@'
p746
tp747
Rp748
ag748
ag748
ag748
ag748
ag748
ag748
ag748
ag748
ag1
(g5
S'R\xfd\xc9\xdf\x84u\x1f@'
p749
tp750
Rp751
ag751
ag751
ag751
ag1
(g5
S' \xdb\xe0.\xa8\xf6\x17@'
p752
tp753
Rp754
ag754
ag754
ag1
(g5
S'\xb5\xa9\xb3\x1ay\xea\x17@'
p755
tp756
Rp757
ag757
ag1
(g5
S'-\x99A^+Q\x1a@'
p758
tp759
Rp760
ag760
ag760
ag760
ag760
ag760
ag760
ag760
ag760
ag760
ag760
ag760
ag760
ag1
(g5
S'S\x94+(\xfci\x1d@'
p761
tp762
Rp763
ag763
ag1
(g5
S'\x13\x87M\xd4t\xa0\x19@'
p764
tp765
Rp766
ag766
ag766
ag766
ag766
ag766
ag1
(g5
S'\xf2L1\x9dG.\x1b@'
p767
tp768
Rp769
ag769
ag769
ag1
(g5
S'\xec6\xbd\xd6\xa8|\x11@'
p770
tp771
Rp772
ag772
ag772
ag772
ag772
ag772
ag772
ag1
(g5
S'\xd5;3v\x98\xc4\x1a@'
p773
tp774
Rp775
ag775
ag1
(g5
S'dO\xaf\xb0\xd1\x07(@'
p776
tp777
Rp778
ag778
ag778
ag778
ag778
ag1
(g5
S'\xb7\xe4\xb2\xf3j\xaa\x1b@'
p779
tp780
Rp781
ag1
(g5
S'\xd7P\x12#\x06\t#@'
p782
tp783
Rp784
ag784
ag784
ag1
(g5
S'\xe2\x1e\xb15\x0bl\x1f@'
p785
tp786
Rp787
ag1
(g5
S'B\xe8`\xf7\xc1\xbe%@'
p788
tp789
Rp790
ag790
ag790
ag790
ag790
ag790
ag790
ag1
(g5
S'\x85\x0bc\xd3\x8b"\x15@'
p791
tp792
Rp793
ag793
ag793
ag793
ag793
ag793
ag793
ag793
ag793
ag793
ag793
ag793
ag793
ag793
ag793
ag793
ag793
ag793
ag1
(g5
S'\xd7>p\x87\xadE\x18@'
p794
tp795
Rp796
ag796
ag796
ag796
ag796
ag1
(g5
S'\xf5N\xac\xd5\xd7\xfe\x18@'
p797
tp798
Rp799
ag799
ag799
ag799
ag799
ag1
(g5
S'Y3\xa5\x10\x96\xb1\x14@'
p800
tp801
Rp802
ag802
ag802
ag802
ag802
ag802
ag802
ag802
ag802
ag802
ag802
ag802
ag802
ag802
ag802
ag802
ag802
ag802
ag802
ag1
(g5
S'9\xf5lp:\xa6\x13@'
p803
tp804
Rp805
ag805
ag805
ag805
ag805
ag805
ag805
ag805
ag805
ag805
ag805
ag805
ag805
ag805
ag805
ag805
ag805
ag805
ag805
ag805
ag805
ag805
ag805
ag805
ag805
ag805
ag805
ag805
ag805
ag805
ag805
ag805
ag805
ag805
ag805
ag805
ag805
ag805
ag805
ag805
ag805
ag805
ag805
ag805
ag805
ag805
ag805
ag805
ag1
(g5
S'\xdf\x1dW8\xfd\xb9\x1b@'
p806
tp807
Rp808
ag808
ag808
ag808
ag808
ag808
ag808
ag808
ag1
(g5
S'\xe9L_\x92\xfd\x87 @'
p809
tp810
Rp811
ag811
ag811
ag811
ag811
ag811
ag811
ag1
(g5
S'\x93\x99\x1f\x9ep\x89\x18@'
p812
tp813
Rp814
ag814
ag814
ag814
ag814
ag814
ag814
ag814
ag814
ag814
ag814
ag814
ag814
ag814
ag1
(g5
S'\xc1H\x93\x19Z\x84\x12@'
p815
tp816
Rp817
ag817
ag817
ag817
ag817
ag817
ag817
ag817
ag817
ag817
ag817
ag817
ag817
ag817
ag817
ag817
ag817
ag817
ag817
ag817
ag817
ag1
(g5
S'\xd2$\x84YG1\x1d@'
p818
tp819
Rp820
ag820
ag820
ag1
(g5
S'\x81B\x1aF\xa0J\x1a@'
p821
tp822
Rp823
ag823
ag823
ag823
ag823
ag823
ag1
(g5
S'\x95\xf9\xd4\xf9)\xb6\x1b@'
p824
tp825
Rp826
ag826
ag826
ag826
ag1
(g5
S'\xf8l/D\x05\xdc\x15@'
p827
tp828
Rp829
ag829
ag829
ag829
ag829
ag829
ag829
ag829
ag829
ag829
ag829
ag829
ag829
ag829
ag829
ag829
ag829
ag829
ag829
ag829
ag1
(g5
S'\xdeI\xbe\xb5\xa9\xd4\x15@'
p830
tp831
Rp832
ag832
ag832
ag832
ag832
ag832
ag832
ag832
ag832
ag832
ag832
ag832
ag832
ag832
ag832
ag832
ag832
ag832
ag832
ag832
ag832
ag832
ag832
ag832
ag832
ag832
ag832
ag1
(g5
S'\x06\x92N\xc3\xaa\xf6"@'
p833
tp834
Rp835
ag835
ag835
ag835
ag835
ag1
(g5
S'\x10\xd2\xea\xe0\x03\x05"@'
p836
tp837
Rp838
ag838
ag1
(g5
S'l\xbd\xf7o\xaee+@'
p839
tp840
Rp841
ag841
ag841
ag1
(g5
S'6\xaf\x1bj\x18\x8c.@'
p842
tp843
Rp844
ag1
(g5
S'\xc3e\x00\x90{\x8e*@'
p845
tp846
Rp847
ag847
ag847
ag1
(g5
S'\xac\xa1G\xa6\xad\xa5$@'
p848
tp849
Rp850
ag1
(g5
S'\xfe0\x0ec\xefp(@'
p851
tp852
Rp853
ag853
ag853
ag853
ag853
ag1
(g5
S'*\xb5\xc2\xed\xe8\xc9\x1c@'
p854
tp855
Rp856
ag856
ag1
(g5
S'\xdc\xb7p\x0c\x12`\x1b@'
p857
tp858
Rp859
ag859
ag859
ag859
ag859
ag859
ag859
ag859
ag859
ag859
ag859
ag859
ag859
ag859
ag859
ag859
ag859
ag859
ag859
ag859
ag859
ag859
ag859
ag859
ag859
ag859
ag859
ag859
ag859
ag1
(g5
S'\xb8\xed\xe0\x8d\xd1S!@'
p860
tp861
Rp862
ag862
ag862
ag862
ag1
(g5
S'\x19|"\xc7\x9f\x89#@'
p863
tp864
Rp865
ag865
ag865
ag865
ag865
ag865
ag865
ag865
ag865
ag865
ag1
(g5
S'\xa0!\xfb\x14)\xac\x1b@'
p866
tp867
Rp868
ag868
ag868
ag868
ag868
ag868
ag868
ag868
ag868
ag868
ag868
ag868
ag868
ag868
ag868
ag868
ag868
ag868
ag868
ag868
ag1
(g5
S">\xcc8\x91\x9a\xa3'@"
p869
tp870
Rp871
ag1
(g5
S'\xef[kL`\x1a#@'
p872
tp873
Rp874
ag874
ag1
(g5
S'_\xa0\xaf\xd8\xd8\x88!@'
p875
tp876
Rp877
ag877
ag877
ag1
(g5
S'\xd9#\xdf\x01\x89R$@'
p878
tp879
Rp880
ag880
ag1
(g5
S'~\xcc\xa2\xe2*\xb6\x1f@'
p881
tp882
Rp883
ag883
ag883
ag1
(g5
S'oy\xf0\x19z&\x1e@'
p884
tp885
Rp886
ag886
ag886
ag886
ag886
ag886
ag1
(g5
S'\x0e\x12\xfa\xb9\xe1\x162@'
p887
tp888
Rp889
ag1
(g5
S'4(\x08\xfa\xbc]%@'
p890
tp891
Rp892
ag1
(g5
S'\x93m\xa9\xb03\x8f%@'
p893
tp894
Rp895
ag1
(g5
S'\x17\xa5\x7f\x10\x88\xe2 @'
p896
tp897
Rp898
ag898
ag898
ag898
ag1
(g5
S'N7N\x86\x9aX\x1c@'
p899
tp900
Rp901
ag901
ag901
ag901
ag901
ag901
ag901
ag901
ag1
(g5
S'b\x8a/g\xb9\xd3\x19@'
p902
tp903
Rp904
ag904
ag904
ag904
ag904
ag904
ag904
ag904
ag904
ag904
ag904
ag1
(g5
S'\x91\x0e\x11x\xcc\xf2"@'
p905
tp906
Rp907
ag907
ag907
ag907
ag1
(g5
S'\x9d\xf1\xdd%\xd9\x15 @'
p908
tp909
Rp910
ag910
ag1
(g5
S"\xa6\x1f\x0f\x176T'@"
p911
tp912
Rp913
ag1
(g5
S'\xf3n;\xe7&\x162@'
p914
tp915
Rp916
ag1
(g5
S'\xd6\xedP\xa8\xc8E\x1f@'
p917
tp918
Rp919
ag1
(g5
S'W/\xb1\xf84M*@'
p920
tp921
Rp922
ag922
ag1
(g5
S"\x93\x9d\x85\xe1t\x94'@"
p923
tp924
Rp925
ag925
ag925
ag1
(g5
S'YbF\x13M\xc0%@'
p926
tp927
Rp928
ag928
ag928
ag928
ag928
ag928
ag928
ag928
ag928
ag928
ag928
ag1
(g5
S'\x0c\xbb\xf33\xf8\x96&@'
p929
tp930
Rp931
ag931
ag931
ag1
(g5
S'He\x82\xb5\xac\xa2%@'
p932
tp933
Rp934
ag934
ag934
ag934
ag934
ag934
ag934
ag934
ag934
ag1
(g5
S'.\x18R\xe6lq#@'
p935
tp936
Rp937
ag937
ag937
ag937
ag937
ag937
ag937
ag937
ag937
ag937
ag937
ag1
(g5
S'\xbd\xf2\xa1\x91}V\x1f@'
p938
tp939
Rp940
ag940
ag940
ag940
ag940
ag1
(g5
S'\x1a\xd3\xf6\xf9|e"@'
p941
tp942
Rp943
ag943
ag1
(g5
S'5\x10\\(\x05\xe7!@'
p944
tp945
Rp946
ag946
ag946
ag946
ag946
ag1
(g5
S'5\x8dy\xecME\x1f@'
p947
tp948
Rp949
ag949
ag949
ag949
ag949
ag949
ag949
ag949
ag949
ag949
ag949
ag1
(g5
S'\x06\xa4\xf9\xfbqr$@'
p950
tp951
Rp952
ag952
ag952
ag952
ag952
ag952
ag952
ag952
ag952
ag1
(g5
S'\x94]\x1eoM~$@'
p953
tp954
Rp955
ag955
ag955
ag955
ag1
(g5
S'n\xdc\x99b\xd8P\x1f@'
p956
tp957
Rp958
ag958
ag1
(g5
S'\xdf/\x1a\xc8\xabg @'
p959
tp960
Rp961
ag961
ag961
ag961
ag961
ag961
ag1
(g5
S'\xaa\xa1n\x8b\xfb,\x1c@'
p962
tp963
Rp964
ag964
ag964
ag964
ag964
ag964
ag964
ag1
(g5
S'TX\xbb\x92\x03\xfb @'
p965
tp966
Rp967
ag967
ag967
ag1
(g5
S'\xd8&\xebbW\x98\x1c@'
p968
tp969
Rp970
ag970
ag970
ag1
(g5
S'\nlu\xb4\xe3\xb2"@'
p971
tp972
Rp973
ag973
ag973
ag973
ag973
ag973
ag973
ag1
(g5
S'\n3\xf9\xa4\x94@%@'
p974
tp975
Rp976
ag976
ag976
ag976
ag976
ag976
ag976
ag976
ag976
ag976
ag1
(g5
S'\xb8ec\xd0;p$@'
p977
tp978
Rp979
ag979
ag979
ag1
(g5
S'\xb2\xe4\x0cz\xacy"@'
p980
tp981
Rp982
ag982
ag1
(g5
S'\x00u;\x9dxJ)@'
p983
tp984
Rp985
ag985
ag1
(g5
S'1\xa2[N\x0e"(@'
p986
tp987
Rp988
ag988
ag988
ag988
ag988
ag988
ag1
(g5
S'ExgK:d4@'
p989
tp990
Rp991
ag991
ag1
(g5
S'\x84&jb\xeb\xdb&@'
p992
tp993
Rp994
ag1
(g5
S'|\xb5\xa7f\xf06$@'
p995
tp996
Rp997
ag997
ag997
ag997
ag1
(g5
S't\xb9\x86\x89j\x0f\x14@'
p998
tp999
Rp1000
ag1000
ag1000
ag1000
ag1
(g5
S'E\x87q\xa5"\x03\x1b@'
p1001
tp1002
Rp1003
ag1003
ag1
(g5
S'\xe8>w\x8b\x89\x04\x1f@'
p1004
tp1005
Rp1006
ag1006
ag1006
ag1006
ag1006
ag1
(g5
S'e@CK\xd3\x01\x1d@'
p1007
tp1008
Rp1009
ag1009
ag1009
ag1
(g5
S'\x8dZI\x98\x13\xd3#@'
p1010
tp1011
Rp1012
ag1012
ag1012
ag1012
ag1012
ag1012
ag1
(g5
S'0\x16R\x11E.%@'
p1013
tp1014
Rp1015
ag1015
ag1015
ag1
(g5
S'\xab\x10\x06\xd9\x03$*@'
p1016
tp1017
Rp1018
ag1
(g5
S'?Uo\xc8=I!@'
p1019
tp1020
Rp1021
ag1021
ag1021
ag1
(g5
S'\xf4\xb8\x1f\xd5 3\x1c@'
p1022
tp1023
Rp1024
ag1024
ag1024
ag1024
ag1024
ag1024
ag1024
ag1024
ag1024
ag1024
ag1024
ag1
(g5
S'(\xf8\x9f\xfb\x8f\xe5\x1b@'
p1025
tp1026
Rp1027
ag1027
ag1027
ag1027
ag1
(g5
S'\xa3tbt\x97V$@'
p1028
tp1029
Rp1030
ag1030
ag1
(g5
S'\x08\x92P\x91\x06\xbe\x1f@'
p1031
tp1032
Rp1033
ag1033
ag1033
ag1033
ag1033
ag1033
ag1033
ag1033
ag1033
ag1033
ag1
(g5
S'\xf8<\xbd\xf0\x19\xb0 @'
p1034
tp1035
Rp1036
ag1036
ag1036
ag1036
ag1036
ag1036
ag1036
ag1036
ag1036
ag1036
ag1036
ag1
(g5
S'JTC"\xccc$@'
p1037
tp1038
Rp1039
ag1039
ag1
(g5
S'\x83\x1f\x16\xa4\x96\x9d\x1e@'
p1040
tp1041
Rp1042
ag1042
ag1042
ag1042
ag1
(g5
S'\r9\xda\xba\xed\xb8"@'
p1043
tp1044
Rp1045
ag1045
ag1045
ag1
(g5
S'\xfb\xa7\xc6\x10\xee\x81#@'
p1046
tp1047
Rp1048
ag1048
ag1048
ag1048
ag1048
ag1048
ag1048
ag1048
ag1048
ag1
(g5
S'\xaez#\x14\x08h$@'
p1049
tp1050
Rp1051
ag1051
ag1051
ag1051
ag1051
ag1
(g5
S'\xff\xe0M\xaa\x15("@'
p1052
tp1053
Rp1054
ag1054
ag1054
ag1054
ag1054
ag1054
ag1054
ag1054
ag1054
ag1054
ag1054
ag1054
ag1054
ag1054
ag1
(g5
S'\x1b\xfd\x16\xba\x18R\x1e@'
p1055
tp1056
Rp1057
ag1
(g5
S'\xf0\xae\xa4\xfd\xaa\t\x1f@'
p1058
tp1059
Rp1060
ag1060
ag1060
ag1060
ag1060
ag1060
ag1060
ag1
(g5
S'6\xcb>\x01\x05\xf3\x1e@'
p1061
tp1062
Rp1063
ag1063
ag1063
ag1
(g5
S'G\xf6\x1f2_&\x1f@'
p1064
tp1065
Rp1066
ag1066
ag1066
ag1
(g5
S'\xa8D\x80\xeb\x8c|#@'
p1067
tp1068
Rp1069
ag1069
ag1069
ag1
(g5
S'\x04/\x199\xa9Z)@'
p1070
tp1071
Rp1072
ag1
(g5
S'\xdd\xf2\x9e\xb6"\xc2!@'
p1073
tp1074
Rp1075
ag1
(g5
S'\xc1H\xd9\x80\t\xb8\x19@'
p1076
tp1077
Rp1078
ag1078
ag1
(g5
S'\xc0\xbd\x14m\xf4""@'
p1079
tp1080
Rp1081
ag1081
ag1
(g5
S'<{\xb8\xa3\xec\xcd\x17@'
p1082
tp1083
Rp1084
ag1084
ag1084
ag1
(g5
S'(?K?0\xf9\x1b@'
p1085
tp1086
Rp1087
ag1087
ag1087
ag1087
ag1087
ag1087
ag1
(g5
S'GQ\x80o\x01\xce\x1b@'
p1088
tp1089
Rp1090
ag1090
ag1090
ag1090
ag1090
ag1090
ag1090
ag1090
ag1090
ag1090
ag1
(g5
S'\x1a\x85N\xb9\x04\\\x18@'
p1091
tp1092
Rp1093
ag1093
ag1093
ag1093
ag1093
ag1093
ag1093
ag1
(g5
S'\xaawU^\xf2+!@'
p1094
tp1095
Rp1096
ag1096
ag1096
ag1096
ag1096
ag1096
ag1096
ag1096
ag1096
ag1096
ag1
(g5
S'g\xdfs\xa85\xfd @'
p1097
tp1098
Rp1099
ag1099
ag1099
ag1099
ag1099
ag1099
ag1099
ag1099
ag1099
ag1099
ag1099
ag1
(g5
S'\t9z\x18B\xed\x14@'
p1100
tp1101
Rp1102
ag1102
ag1102
ag1
(g5
S'\x9fe\x11\xef\xae\xb8$@'
p1103
tp1104
Rp1105
ag1105
ag1105
ag1105
ag1105
ag1105
ag1105
ag1105
ag1105
ag1105
ag1105
ag1105
ag1105
ag1105
ag1105
ag1105
ag1105
ag1105
ag1105
ag1105
ag1105
ag1105
ag1105
ag1105
ag1105
ag1105
ag1105
ag1
(g5
S'\xf0\x93i\xc3\xc8\x02#@'
p1106
tp1107
Rp1108
ag1108
ag1108
ag1
(g5
S'\xbe\xf5\x95I\xad\xeb\x13@'
p1109
tp1110
Rp1111
ag1111
ag1111
ag1111
ag1111
ag1111
ag1111
ag1111
ag1111
ag1111
ag1111
ag1111
ag1111
ag1111
ag1111
ag1111
ag1111
ag1111
ag1111
ag1111
ag1111
ag1111
ag1
(g5
S'\xbdhV\xfe2\xdd&@'
p1112
tp1113
Rp1114
ag1
(g5
S"O\xd2\xad\xccVi'@"
p1115
tp1116
Rp1117
ag1
(g5
S'|,\x04\xeaj\xc9%@'
p1118
tp1119
Rp1120
ag1120
ag1120
ag1120
ag1120
ag1120
ag1
(g5
S'H\xdf,\t\x0c\xb8\x1b@'
p1121
tp1122
Rp1123
ag1
(g5
S'p\xc5\t<\x8b\xbd"@'
p1124
tp1125
Rp1126
ag1126
ag1126
ag1126
ag1126
ag1126
ag1
(g5
S'D\xa7Gx-7$@'
p1127
tp1128
Rp1129
ag1129
ag1
(g5
S'\xabB\x8a\xb8\xda\xd7\x1a@'
p1130
tp1131
Rp1132
ag1132
ag1132
ag1132
ag1132
ag1
(g5
S'$`\xa2\x8c\xe6\xe1\x18@'
p1133
tp1134
Rp1135
ag1135
ag1135
ag1135
ag1135
ag1135
ag1135
ag1
(g5
S'\x92d\xb7,\xec\x1e\x1b@'
p1136
tp1137
Rp1138
ag1138
ag1138
ag1138
ag1138
ag1138
ag1138
ag1
(g5
S'\xe7\xe5\xb7\x14\xd2\xd2"@'
p1139
tp1140
Rp1141
ag1141
ag1
(g5
S"\x9e\x1e\x82\x9dG\x85'@"
p1142
tp1143
Rp1144
ag1
(g5
S'\x9d\x19\xa5is (@'
p1145
tp1146
Rp1147
ag1147
ag1
(g5
S'H\x0b\x88[\x07\x1c%@'
p1148
tp1149
Rp1150
ag1
(g5
S'%$Ds%\x03"@'
p1151
tp1152
Rp1153
ag1153
ag1153
ag1
(g5
S'\xa8\xe3z\xfe\xac\xc3 @'
p1154
tp1155
Rp1156
ag1156
ag1156
ag1
(g5
S'e\xa9Y\xd4\xbf\x19\x1b@'
p1157
tp1158
Rp1159
ag1159
ag1159
ag1159
ag1
(g5
S'\xed;\xac\x7fw\xf9\x1c@'
p1160
tp1161
Rp1162
ag1
(g5
S'\x18;#\xa1\xb9\x86"@'
p1163
tp1164
Rp1165
ag1165
ag1165
ag1165
ag1165
ag1
(g5
S'l\x01\xbaZ\xca\x81\x1c@'
p1166
tp1167
Rp1168
ag1168
ag1168
ag1
(g5
S'i)T\xc2\xd6\x98\x16@'
p1169
tp1170
Rp1171
ag1171
ag1171
ag1171
ag1171
ag1171
ag1171
ag1171
ag1171
ag1171
ag1171
ag1171
ag1171
ag1171
ag1
(g5
S'\xe2`\xfc\x8bVQ%@'
p1172
tp1173
Rp1174
ag1
(g5
S'MQd`\xbf\x1d-@'
p1175
tp1176
Rp1177
ag1
(g5
S'\x15>\xa0\x8e\xbaC8@'
p1178
tp1179
Rp1180
ag1
(g5
S'#Q\x1aD\xa3i\x1a@'
p1181
tp1182
Rp1183
ag1183
ag1183
ag1183
ag1183
ag1183
ag1183
ag1183
ag1183
ag1183
ag1
(g5
S'\xe96\xbb\x94\x01\xfa\x13@'
p1184
tp1185
Rp1186
ag1186
ag1186
ag1186
ag1186
ag1186
ag1186
ag1
(g5
S'\x9c\xe1\x15\xd25\t"@'
p1187
tp1188
Rp1189
ag1189
ag1189
ag1
(g5
S"\xc9'\xdf\xf0\x95\xbc!@"
p1190
tp1191
Rp1192
ag1
(g5
S'\x1f\x0f\xc6\xc0W\xd6$@'
p1193
tp1194
Rp1195
ag1195
ag1195
ag1
(g5
S'\x94g\x04\xeeI\xf6*@'
p1196
tp1197
Rp1198
ag1198
ag1198
ag1198
ag1198
ag1
(g5
S'\xcd\x92Yo\xa7\xd5(@'
p1199
tp1200
Rp1201
ag1
(g5
S'J\xf5\xca\x1a\xf9\xae+@'
p1202
tp1203
Rp1204
ag1204
ag1204
ag1
(g5
S"M\xade\x98n\xf2'@"
p1205
tp1206
Rp1207
ag1207
ag1207
ag1
(g5
S'\xc9\xa2\x0e\x1a<\x0f"@'
p1208
tp1209
Rp1210
ag1210
ag1210
ag1210
ag1210
ag1
(g5
S'I\xc3\x80\xd1\xef\xe8 @'
p1211
tp1212
Rp1213
ag1213
ag1213
ag1213
ag1213
ag1213
ag1213
ag1213
ag1213
ag1213
ag1213
ag1
(g5
S'\x83\xdb}g\xb5\xe7!@'
p1214
tp1215
Rp1216
ag1216
ag1
(g5
S'\x83?_\x90|(\x17@'
p1217
tp1218
Rp1219
ag1219
ag1219
ag1219
ag1219
ag1219
ag1219
ag1219
ag1
(g5
S'\xb0\xd2zr\xa4b(@'
p1220
tp1221
Rp1222
ag1222
ag1
(g5
S'D\xa0\xf3\xech\xcb,@'
p1223
tp1224
Rp1225
ag1225
ag1225
ag1
(g5
S'y\xe4\xdc[+t\x1c@'
p1226
tp1227
Rp1228
ag1228
ag1228
ag1228
ag1228
ag1228
ag1228
ag1228
ag1228
ag1228
ag1228
ag1228
ag1228
ag1
(g5
S'\xf1m\xb6\x1a\x17\x1e\x1d@'
p1229
tp1230
Rp1231
ag1
(g5
S'p\xad4\xa2\xb3N\x1c@'
p1232
tp1233
Rp1234
ag1
(g5
S'\x84\xe9\xae,gK#@'
p1235
tp1236
Rp1237
ag1237
ag1
(g5
S'\xf5@\xbaTH #@'
p1238
tp1239
Rp1240
ag1
(g5
S'\xc97\x94\x11\xb5\x85\x11@'
p1241
tp1242
Rp1243
ag1243
ag1243
ag1243
ag1243
ag1243
ag1243
ag1243
ag1243
ag1
(g5
S'\xf5vJB\xda\xfd\x16@'
p1244
tp1245
Rp1246
ag1246
ag1246
ag1246
ag1246
ag1246
ag1246
ag1246
ag1246
ag1
(g5
S'\x9e\xb3\xecJ\xd9\xc9!@'
p1247
tp1248
Rp1249
ag1249
ag1249
ag1
(g5
S'\x98\xa5u\x13\xde\xdd\x1f@'
p1250
tp1251
Rp1252
ag1
(g5
S':n\x06^/\xa1\x1c@'
p1253
tp1254
Rp1255
ag1255
ag1255
ag1
(g5
S'wU.JXL\x1f@'
p1256
tp1257
Rp1258
ag1258
ag1258
ag1258
ag1
(g5
S'\xd7\xe4\xa9J\x10/(@'
p1259
tp1260
Rp1261
ag1261
ag1261
ag1261
ag1261
ag1261
ag1
(g5
S'AXq\x81\xf2A\x1c@'
p1262
tp1263
Rp1264
ag1264
ag1
(g5
S' \x98?\xabkM$@'
p1265
tp1266
Rp1267
ag1267
ag1
(g5
S'?\x19\xc5\xb5\x85\x13\x1b@'
p1268
tp1269
Rp1270
ag1270
ag1270
ag1
(g5
S'\x98\x8a\x84\xdf\xd1Y\x11@'
p1271
tp1272
Rp1273
ag1273
ag1273
ag1273
ag1273
ag1273
ag1273
ag1273
ag1273
ag1273
ag1273
ag1273
ag1273
ag1273
ag1273
ag1273
ag1
(g5
S'\x95\x18\x89r\x88\xe0\x18@'
p1274
tp1275
Rp1276
ag1276
ag1276
ag1276
ag1276
ag1276
ag1276
ag1
(g5
S'K\x1c\x8fl\xb4F\x1a@'
p1277
tp1278
Rp1279
ag1279
ag1279
ag1279
ag1279
ag1279
ag1279
ag1279
ag1279
ag1279
ag1279
ag1279
ag1
(g5
S'\x10\x95L\x9fn\xaf&@'
p1280
tp1281
Rp1282
ag1282
ag1282
ag1282
ag1
(g5
S'\xa2Y\xe0\xedR\x04\x19@'
p1283
tp1284
Rp1285
ag1
(g5
S'\xfajf\x87\xdd\xc5"@'
p1286
tp1287
Rp1288
ag1288
ag1
(g5
S'\xed("\xe9\x0c*\x0e@'
p1289
tp1290
Rp1291
ag1
(g5
S'\x95\xd00\xdcU\xaa\x12@'
p1292
tp1293
Rp1294
ag1294
ag1294
ag1294
ag1294
ag1294
ag1
(g5
S'\x00l\x94\xab\\\xe7\x12@'
p1295
tp1296
Rp1297
ag1297
ag1297
ag1297
ag1297
ag1297
ag1297
ag1297
ag1297
ag1297
ag1297
ag1297
ag1297
ag1297
ag1297
ag1297
ag1297
ag1297
ag1297
ag1297
ag1297
ag1297
ag1297
ag1297
ag1297
ag1297
ag1297
ag1297
ag1297
ag1297
ag1297
ag1297
ag1297
ag1297
ag1297
ag1297
ag1297
ag1297
ag1297
ag1297
ag1297
ag1297
ag1297
ag1297
ag1297
ag1297
ag1
(g5
S'a\xb6\r\x8f\xa6\x83\x17@'
p1298
tp1299
Rp1300
ag1300
ag1300
ag1
(g5
S'w\xe9\x9f\xc4\xc1\x81 @'
p1301
tp1302
Rp1303
ag1303
ag1303
ag1303
ag1303
ag1303
ag1
(g5
S'".\x88\xa0n2\x1c@'
p1304
tp1305
Rp1306
ag1
(g5
S"r'~z\xe5\xdc\x1a@"
p1307
tp1308
Rp1309
ag1309
ag1309
ag1
(g5
S'\xa5&\xd7\x83\xd2\x01\x18@'
p1310
tp1311
Rp1312
ag1312
ag1312
ag1312
ag1312
ag1312
ag1312
ag1312
ag1312
ag1312
ag1312
ag1312
ag1312
ag1312
ag1312
ag1312
ag1312
ag1312
ag1312
ag1312
ag1312
ag1312
ag1312
ag1312
ag1312
ag1
(g5
S'\n\xed|\x80Rh*@'
p1313
tp1314
Rp1315
ag1
(g5
S'\xbc\xb9\x18k\x02\x84 @'
p1316
tp1317
Rp1318
ag1318
ag1318
ag1318
ag1318
ag1318
ag1318
ag1318
ag1
(g5
S'E\x01\x01r\xfa\r\x19@'
p1319
tp1320
Rp1321
ag1321
ag1321
ag1321
ag1321
ag1321
ag1321
ag1321
ag1
(g5
S'\xc3\x12}\xd7\xc9N @'
p1322
tp1323
Rp1324
ag1324
ag1
(g5
S'\xe0\r^\xe2\xc9w!@'
p1325
tp1326
Rp1327
ag1
(g5
S'\xb1r3$\x91\xcd\x1a@'
p1328
tp1329
Rp1330
ag1330
ag1330
ag1
(g5
S'\xe0\xc5\x86\xb1\xcfb\x14@'
p1331
tp1332
Rp1333
ag1333
ag1333
ag1333
ag1333
ag1333
ag1333
ag1333
ag1333
ag1333
ag1333
ag1333
ag1333
ag1333
ag1333
ag1333
ag1333
ag1
(g5
S'u\x86\xf9\xe2\xc8\xa0\x16@'
p1334
tp1335
Rp1336
ag1336
ag1336
ag1
(g5
S'\xe2/8b\xa3\xfb\x15@'
p1337
tp1338
Rp1339
ag1339
ag1
(g5
S'\xc1\xb5\x152\xdaY\x17@'
p1340
tp1341
Rp1342
ag1342
ag1342
ag1342
ag1342
ag1
(g5
S'\x1e\xca\xd5\xf2\xf2c @'
p1343
tp1344
Rp1345
ag1345
ag1345
ag1345
ag1
(g5
S'\x98\xe6\x91\xe3#\xab\x1b@'
p1346
tp1347
Rp1348
ag1348
ag1348
ag1348
ag1348
ag1348
ag1348
ag1348
ag1348
ag1348
ag1348
ag1348
ag1
(g5
S'f+\xf9\x9c\x85\xaf\x1c@'
p1349
tp1350
Rp1351
ag1351
ag1351
ag1351
ag1351
ag1351
ag1351
ag1
(g5
S'*\x9da9\xf9\x07\x18@'
p1352
tp1353
Rp1354
ag1354
ag1354
ag1354
ag1354
ag1354
ag1354
ag1354
ag1354
ag1354
ag1354
ag1
(g5
S'|\xc3\xd9\xd7\x84\x8c\x1e@'
p1355
tp1356
Rp1357
ag1
(g5
S'\xe6\xcd\x9d\xf1t\xe4$@'
p1358
tp1359
Rp1360
ag1360
ag1360
ag1
(g5
S'\xba\x0ft\x11oq&@'
p1361
tp1362
Rp1363
ag1
(g5
S'@J\xbeM,d"@'
p1364
tp1365
Rp1366
ag1366
ag1366
ag1366
ag1366
ag1
(g5
S'ddU\xdb\x95\xdf#@'
p1367
tp1368
Rp1369
ag1369
ag1369
ag1369
ag1
(g5
S'\xd6\x94t\xd9\xde\xb6\x1b@'
p1370
tp1371
Rp1372
ag1372
ag1372
ag1372
ag1372
ag1372
ag1372
ag1372
ag1372
ag1372
ag1372
ag1372
ag1372
ag1372
ag1372
ag1372
ag1372
ag1
(g5
S'\x1f\x8f\x9b\x0b\xa5\xcd @'
p1373
tp1374
Rp1375
ag1375
ag1
(g5
S'\xca\x132\xa9\xebd\x1b@'
p1376
tp1377
Rp1378
ag1378
ag1378
ag1378
ag1
(g5
S'L\x15\x9a\xbe-k\x18@'
p1379
tp1380
Rp1381
ag1381
ag1381
ag1381
ag1381
ag1381
ag1381
ag1381
ag1381
ag1381
ag1381
ag1381
ag1381
ag1381
ag1381
ag1381
ag1381
ag1381
ag1381
ag1381
ag1381
ag1381
ag1381
ag1381
ag1381
ag1381
ag1381
ag1381
ag1381
ag1
(g5
S'\xdc5\xf8d\xd7\xee\x14@'
p1382
tp1383
Rp1384
ag1384
ag1384
ag1384
ag1384
ag1384
ag1384
ag1384
ag1384
ag1384
ag1384
ag1384
ag1384
ag1384
ag1384
ag1384
ag1384
ag1
(g5
S'8\xf4\x87w6v"@'
p1385
tp1386
Rp1387
ag1
(g5
S'\xb3\xd4M\x90c\xc3#@'
p1388
tp1389
Rp1390
ag1390
ag1
(g5
S'\x17\xf7\x88v\x9c=\x1f@'
p1391
tp1392
Rp1393
ag1393
ag1
(g5
S'\xd3\xcd\xbe\x90\n\x86\x14@'
p1394
tp1395
Rp1396
ag1396
ag1396
ag1396
ag1396
ag1396
ag1396
ag1396
ag1396
ag1396
ag1396
ag1396
ag1396
ag1396
ag1396
ag1396
ag1396
ag1396
ag1396
ag1396
ag1396
ag1396
ag1396
ag1
(g5
S'\xe6~\x92\xf3\x08g\x1c@'
p1397
tp1398
Rp1399
ag1399
ag1399
ag1399
ag1
(g5
S'gs\xea@^\xf5\x1f@'
p1400
tp1401
Rp1402
ag1402
ag1402
ag1402
ag1402
ag1402
ag1402
ag1402
ag1
(g5
S'\x07o\xdfU:\xe8\x1a@'
p1403
tp1404
Rp1405
ag1405
ag1405
ag1405
ag1
(g5
S'd\x88\x044\x04d\x1d@'
p1406
tp1407
Rp1408
ag1408
ag1408
ag1408
ag1408
ag1408
ag1
(g5
S'\xd7(\xb0\xf56\xcc\x10@'
p1409
tp1410
Rp1411
ag1411
ag1411
ag1411
ag1411
ag1411
ag1
(g5
S'\x19W\x00#\xd8\x12\x17@'
p1412
tp1413
Rp1414
ag1414
ag1414
ag1
(g5
S'wN\xe6F\xe7N\x13@'
p1415
tp1416
Rp1417
ag1417
ag1417
ag1417
ag1417
ag1417
ag1417
ag1417
ag1417
ag1417
ag1417
ag1417
ag1417
ag1417
ag1417
ag1417
ag1417
ag1417
ag1417
ag1417
ag1417
ag1417
ag1417
ag1417
ag1417
ag1417
ag1417
ag1417
ag1417
ag1417
ag1417
ag1417
ag1417
ag1417
ag1417
ag1417
ag1417
ag1417
ag1417
ag1417
ag1417
ag1417
ag1
(g5
S'\x84Cs@\xb7`\x15@'
p1418
tp1419
Rp1420
ag1420
ag1420
ag1420
ag1420
ag1420
ag1420
ag1420
ag1420
ag1420
ag1420
ag1420
ag1420
ag1420
ag1420
ag1420
ag1420
ag1420
ag1
(g5
S'{4\x97\xf8\xb1\x9f\x1b@'
p1421
tp1422
Rp1423
ag1423
ag1423
ag1423
ag1
(g5
S'L=\xca\xf3\xd0\x9f\x19@'
p1424
tp1425
Rp1426
ag1426
ag1426
ag1426
ag1426
ag1426
ag1426
ag1426
ag1426
ag1426
ag1426
ag1426
ag1426
ag1
(g5
S'\xf1\xd5\xa6u\xe1\xed\x10@'
p1427
tp1428
Rp1429
ag1429
ag1429
ag1
(g5
S'j\x0fz\xc2L\x91\x17@'
p1430
tp1431
Rp1432
ag1432
ag1432
ag1
(g5
S'k\x16\xb0\x9d\xbf\x81#@'
p1433
tp1434
Rp1435
ag1435
ag1435
ag1435
ag1435
ag1435
ag1435
ag1
(g5
S'\x012\x81\xc1\x03\xfb!@'
p1436
tp1437
Rp1438
ag1438
ag1438
ag1
(g5
S'\x07=\x8b \nk\x18@'
p1439
tp1440
Rp1441
ag1441
ag1441
ag1
(g5
S'\xde\xac\xff\xfcq\xb4\x15@'
p1442
tp1443
Rp1444
ag1444
ag1444
ag1444
ag1
(g5
S'\xbcD\x0b\xb6\x08\x8c$@'
p1445
tp1446
Rp1447
ag1
(g5
S'P\xe8\x88C\xfb\x1b\x16@'
p1448
tp1449
Rp1450
ag1450
ag1
(g5
S'v\x94\x9aL\xaa\xfc$@'
p1451
tp1452
Rp1453
ag1453
ag1453
ag1
(g5
S'=\x8cma3\xfa\x1d@'
p1454
tp1455
Rp1456
ag1456
ag1456
ag1456
ag1456
ag1456
ag1
(g5
S'\xc0\xd9\x07\xaa\x05\x9a\x17@'
p1457
tp1458
Rp1459
ag1459
ag1459
ag1
(g5
S'O-\x9aM\xb5\xd5\x15@'
p1460
tp1461
Rp1462
ag1462
ag1462
ag1462
ag1462
ag1462
ag1462
ag1462
ag1462
ag1462
ag1462
ag1462
ag1462
ag1
(g5
S'v\xec\xed\x8c\xb0_\x12@'
p1463
tp1464
Rp1465
ag1465
ag1465
ag1465
ag1465
ag1465
ag1465
ag1465
ag1465
ag1465
ag1465
ag1465
ag1465
ag1465
ag1465
ag1465
ag1465
ag1465
ag1465
ag1465
ag1465
ag1465
ag1465
ag1465
ag1465
ag1465
ag1465
ag1465
ag1465
ag1465
ag1465
ag1
(g5
S'mc\xc5Y\xe5!\x1a@'
p1466
tp1467
Rp1468
ag1468
ag1468
ag1468
ag1468
ag1
(g5
S'\xb2Q\xd3\x0f\xee\xe6\x15@'
p1469
tp1470
Rp1471
ag1471
ag1471
ag1471
ag1471
ag1471
ag1471
ag1471
ag1471
ag1471
ag1471
ag1471
ag1471
ag1471
ag1471
ag1471
ag1471
ag1471
ag1471
ag1471
ag1
(g5
S'\xc5\xea\x95\xa0O\xdb @'
p1472
tp1473
Rp1474
ag1474
ag1474
ag1
(g5
S'\t\x8b\x7f2\xda|\x19@'
p1475
tp1476
Rp1477
ag1477
ag1477
ag1
(g5
S'\xbcB\n\xaf\xcd{"@'
p1478
tp1479
Rp1480
ag1480
ag1480
ag1
(g5
S'\xb9E\xf5\xe5\xfd^+@'
p1481
tp1482
Rp1483
ag1483
ag1483
ag1483
ag1483
ag1483
ag1483
ag1
(g5
S"e\x1b\x1e_|5'@"
p1484
tp1485
Rp1486
ag1
(g5
S'@j\xd7\xe3\x94\x9f\x1d@'
p1487
tp1488
Rp1489
ag1489
ag1489
ag1489
ag1489
ag1489
ag1489
ag1
(g5
S'\xb1\xedlO\x8e\x87&@'
p1490
tp1491
Rp1492
ag1492
ag1492
ag1492
ag1492
ag1492
ag1
(g5
S'\xc8f\xdd\x17*k @'
p1493
tp1494
Rp1495
ag1495
ag1495
ag1495
ag1495
ag1495
ag1495
ag1495
ag1495
ag1
(g5
S'\xb2\x9baP\x0f\x9f\x1a@'
p1496
tp1497
Rp1498
ag1498
ag1498
ag1498
ag1498
ag1498
ag1498
ag1498
ag1498
ag1498
ag1498
ag1498
ag1498
ag1498
ag1498
ag1498
ag1498
ag1498
ag1498
ag1498
ag1498
ag1498
ag1498
ag1498
ag1498
ag1498
ag1498
ag1498
ag1498
ag1498
ag1498
ag1498
ag1498
ag1498
ag1498
ag1498
ag1498
ag1498
ag1498
ag1498
ag1498
ag1498
ag1498
ag1498
ag1498
ag1498
ag1498
ag1498
ag1498
ag1498
ag1498
ag1498
ag1498
ag1498
ag1498
ag1498
ag1498
ag1498
ag1498
ag1498
ag1498
ag1498
ag1498
ag1498
ag1498
ag1498
ag1498
ag1498
ag1498
ag1498
ag1498
ag1498
ag1498
ag1498
ag1498
ag1498
ag1498
ag1498
ag1498
ag1498
ag1498
ag1
(g5
S'Z\xc5T5\xed} @'
p1499
tp1500
Rp1501
ag1501
ag1501
ag1
(g5
S'\x8d\x05\xfe\xeb~\xd2&@'
p1502
tp1503
Rp1504
ag1504
ag1
(g5
S'\xf5\x99\x15&<N!@'
p1505
tp1506
Rp1507
ag1507
ag1
(g5
S'\x97|\xbdS\x1dV"@'
p1508
tp1509
Rp1510
ag1510
ag1510
ag1510
ag1510
ag1510
ag1
(g5
S'\xd1e.l\xd4A$@'
p1511
tp1512
Rp1513
ag1513
ag1513
ag1
(g5
S'^\x16M\xf0\x93\x08%@'
p1514
tp1515
Rp1516
ag1516
ag1
(g5
S'\xc7\xbc\xca\xcd\xac\xa7!@'
p1517
tp1518
Rp1519
ag1
(g5
S'\x7f\xb6\x15\x9b\xeff!@'
p1520
tp1521
Rp1522
ag1522
ag1522
ag1522
ag1522
ag1522
ag1522
ag1522
ag1522
ag1522
ag1522
ag1
(g5
S'\xa6\r<\x92\xceu"@'
p1523
tp1524
Rp1525
ag1525
ag1525
ag1525
ag1525
ag1525
ag1525
ag1525
ag1
(g5
S'\x0f\xab\n\xd1t2"@'
p1526
tp1527
Rp1528
ag1528
ag1528
ag1528
ag1528
ag1528
ag1528
ag1528
ag1528
ag1
(g5
S'<\xa4=\xe3\xc6&\x1c@'
p1529
tp1530
Rp1531
ag1531
ag1531
ag1531
ag1531
ag1531
ag1531
ag1
(g5
S"8\xe4\x18\xd8\xc2<'@"
p1532
tp1533
Rp1534
ag1534
ag1
(g5
S'\x9c\xae\xe6\xab=0"@'
p1535
tp1536
Rp1537
ag1537
ag1537
ag1537
ag1537
ag1537
ag1537
ag1537
ag1537
ag1537
ag1537
ag1537
ag1
(g5
S'\x8f\x04\xab/x\xb1\x1b@'
p1538
tp1539
Rp1540
ag1540
ag1540
ag1540
ag1540
ag1540
ag1
(g5
S'\x10\x8b\xf6\x99\xb9\xfa\x1b@'
p1541
tp1542
Rp1543
ag1543
ag1543
ag1543
ag1543
ag1543
ag1
(g5
S"\x90\xce\x08\x8b\x87'%@"
p1544
tp1545
Rp1546
ag1546
ag1546
ag1546
ag1546
ag1546
ag1546
ag1546
ag1
(g5
S'\xfe\xde\x14A\xc6{%@'
p1547
tp1548
Rp1549
ag1549
ag1549
ag1
(g5
S'\x17W\xba\xb5\xc3\xe6\x1c@'
p1550
tp1551
Rp1552
ag1552
ag1552
ag1552
ag1
(g5
S"\xc5\xc4'\xa3\xdf\x19!@"
p1553
tp1554
Rp1555
ag1
(g5
S'Q\xeaw\xaa\t\xe5 @'
p1556
tp1557
Rp1558
ag1
(g5
S'/\x99\xa6\xe4\xe3\x83\x18@'
p1559
tp1560
Rp1561
ag1561
ag1561
ag1561
ag1561
ag1561
ag1561
ag1561
ag1561
ag1561
ag1561
ag1561
ag1561
ag1561
ag1561
ag1561
ag1561
ag1561
ag1561
ag1
(g5
S'\xf6\xd0\x7f\xc3>\xe3!@'
p1562
tp1563
Rp1564
ag1564
ag1564
ag1564
ag1564
ag1564
ag1
(g5
S'\x9b\xf2\xaff\xa2\x89 @'
p1565
tp1566
Rp1567
ag1567
ag1567
ag1
(g5
S'\x15R\xed\xfb{m"@'
p1568
tp1569
Rp1570
ag1570
ag1570
ag1570
ag1570
ag1
(g5
S'\xddx\xda\xc24\xda!@'
p1571
tp1572
Rp1573
ag1
(g5
S'Du\xb0_\x96\xcb\x1b@'
p1574
tp1575
Rp1576
ag1576
ag1576
ag1576
ag1576
ag1576
ag1576
ag1576
ag1576
ag1576
ag1576
ag1576
ag1576
ag1576
ag1576
ag1576
ag1576
ag1576
ag1
(g5
S'\xe6\x8f.\xe0\x98\xcd"@'
p1577
tp1578
Rp1579
ag1579
ag1579
ag1579
ag1579
ag1579
ag1579
ag1579
ag1579
ag1
(g5
S'\x8cv})\x870\x1b@'
p1580
tp1581
Rp1582
ag1
(g5
S'p\xe4\xea\xd2\x08h\x15@'
p1583
tp1584
Rp1585
ag1585
ag1585
ag1585
ag1
(g5
S'\xde\xe0\xff\x8c\xe6a\x13@'
p1586
tp1587
Rp1588
ag1588
ag1588
ag1588
ag1588
ag1588
ag1588
ag1588
ag1588
ag1588
ag1588
ag1588
ag1588
ag1588
ag1588
ag1588
ag1588
ag1588
ag1588
ag1588
ag1588
ag1588
ag1588
ag1
(g5
S'm\x16\xed\xb8\x17f\x16@'
p1589
tp1590
Rp1591
ag1591
ag1591
ag1591
ag1591
ag1591
ag1591
ag1591
ag1591
ag1591
ag1591
ag1591
ag1591
ag1591
ag1
(g5
S'k\xc94\x95\x9b\xe7\x13@'
p1592
tp1593
Rp1594
ag1594
ag1594
ag1594
ag1594
ag1594
ag1594
ag1594
ag1594
ag1
(g5
S'B)\x1c\r\xdc\xa7\x1a@'
p1595
tp1596
Rp1597
ag1597
ag1
(g5
S',D\x1c*\x13\x96\x1e@'
p1598
tp1599
Rp1600
ag1600
ag1600
ag1600
ag1600
ag1600
ag1600
ag1600
ag1600
ag1600
ag1600
ag1
(g5
S'\xd0{6Gm\xc7"@'
p1601
tp1602
Rp1603
ag1
(g5
S'h\xa8\xfb/\xa3\xf0#@'
p1604
tp1605
Rp1606
ag1606
ag1606
ag1606
ag1
(g5
S'g\x9c\x05\xbe$\x1b\x18@'
p1607
tp1608
Rp1609
ag1609
ag1609
ag1609
ag1609
ag1609
ag1609
ag1609
ag1
(g5
S'\xd4DH\xacK\x02\x0f@'
p1610
tp1611
Rp1612
ag1612
ag1612
ag1612
ag1612
ag1612
ag1612
ag1612
ag1612
ag1
(g5
S'\x0c\xe7[\xf6\xc6\xce\x11@'
p1613
tp1614
Rp1615
ag1615
ag1615
ag1615
ag1615
ag1615
ag1615
ag1615
ag1615
ag1
(g5
S'\x85\x07_.q\xcb"@'
p1616
tp1617
Rp1618
ag1618
ag1618
ag1618
ag1
(g5
S'\x8f\xa8\xaf{\x04\xf3\x1b@'
p1619
tp1620
Rp1621
ag1621
ag1621
ag1621
ag1621
ag1621
ag1
(g5
S'\x10G\xca6\xa0%\x11@'
p1622
tp1623
Rp1624
ag1624
ag1624
ag1624
ag1624
ag1624
ag1624
ag1624
ag1624
ag1624
ag1624
ag1
(g5
S'fR+\xd6\xd1\xb2\x11@'
p1625
tp1626
Rp1627
ag1627
ag1627
ag1627
ag1627
ag1627
ag1627
ag1627
ag1627
ag1627
ag1627
ag1627
ag1627
ag1627
ag1627
ag1627
ag1627
ag1627
ag1
(g5
S'\xa9\xa9\xcb*E\xd6\x05@'
p1628
tp1629
Rp1630
ag1630
ag1630
ag1630
ag1630
ag1630
ag1630
ag1630
ag1630
ag1630
ag1630
ag1630
ag1630
ag1630
ag1630
ag1630
ag1630
ag1630
ag1630
ag1630
ag1630
ag1630
ag1630
ag1630
ag1630
ag1630
ag1630
ag1630
ag1630
ag1630
ag1630
ag1630
ag1630
ag1630
ag1630
ag1630
ag1630
ag1630
ag1630
ag1630
ag1630
ag1630
ag1630
ag1630
ag1630
ag1630
ag1630
ag1630
ag1630
ag1630
ag1630
ag1630
ag1630
ag1630
ag1630
ag1630
ag1630
ag1630
ag1630
ag1630
ag1630
ag1
(g5
S'\t\x11b\xaae\xa8\x12@'
p1631
tp1632
Rp1633
ag1633
ag1633
ag1633
ag1633
ag1
(g5
S'\xec.\x03\xd9\xb0g\x1d@'
p1634
tp1635
Rp1636
ag1636
ag1636
ag1636
ag1636
ag1636
ag1
(g5
S'\xf2\xfdd\xd6e\xe6\x15@'
p1637
tp1638
Rp1639
ag1639
ag1639
ag1639
ag1639
ag1639
ag1639
ag1639
ag1639
ag1639
ag1639
ag1639
ag1639
ag1639
ag1639
ag1639
ag1639
ag1639
ag1639
ag1639
ag1
(g5
S'\xfa\xee-m\xdc\x07\x18@'
p1640
tp1641
Rp1642
ag1
(g5
S'k\xae\x08Cw&\x19@'
p1643
tp1644
Rp1645
ag1
(g5
S'\x90B\xdaU(5\x15@'
p1646
tp1647
Rp1648
ag1648
ag1648
ag1648
ag1648
ag1648
ag1
(g5
S'\xd4\x00gV\xa4c\x17@'
p1649
tp1650
Rp1651
ag1651
ag1651
ag1651
ag1
(g5
S' \x9a\x81\xd5}\xe1\x17@'
p1652
tp1653
Rp1654
ag1654
ag1654
ag1654
ag1654
ag1654
ag1654
ag1654
ag1654
ag1654
ag1654
ag1
(g5
S'F"\x8eb\xa0`\x1c@'
p1655
tp1656
Rp1657
ag1657
ag1
(g5
S'\x9f\x01\x9a$\xe1\xf9\x11@'
p1658
tp1659
Rp1660
ag1660
ag1660
ag1660
ag1660
ag1660
ag1660
ag1660
ag1660
ag1660
ag1660
ag1660
ag1
(g5
S'q\x06\x89\xc3{\xde\x1c@'
p1661
tp1662
Rp1663
ag1663
ag1663
ag1663
ag1663
ag1663
ag1663
ag1
(g5
S'j\xa2\x0e\xcf(\xf9\x17@'
p1664
tp1665
Rp1666
ag1666
ag1666
ag1666
ag1666
ag1666
ag1666
ag1666
ag1666
ag1666
ag1666
ag1666
ag1666
ag1
(g5
S'\xc2\xd9\xcc\xec\xffA\x14@'
p1667
tp1668
Rp1669
ag1669
ag1669
ag1669
ag1669
ag1669
ag1669
ag1669
ag1669
ag1669
ag1669
ag1669
ag1669
ag1
(g5
S'0\x8a\xc8\x97\xe47\x14@'
p1670
tp1671
Rp1672
ag1672
ag1672
ag1672
ag1672
ag1672
ag1672
ag1672
ag1672
ag1672
ag1
(g5
S'\x90\xb7JL\xb8\xc0\t@'
p1673
tp1674
Rp1675
ag1675
ag1675
ag1675
ag1675
ag1675
ag1675
ag1675
ag1675
ag1675
ag1675
ag1675
ag1675
ag1675
ag1675
ag1675
ag1675
ag1675
ag1675
ag1675
ag1675
ag1675
ag1675
ag1675
ag1675
ag1675
ag1675
ag1
(g5
S's\xb6\xff\xfb\xb6\x93\x14@'
p1676
tp1677
Rp1678
ag1678
ag1678
ag1678
ag1678
ag1678
ag1678
ag1678
ag1678
ag1
(g5
S'n`\x9d\r%S\x11@'
p1679
tp1680
Rp1681
ag1681
ag1681
ag1681
ag1681
ag1681
ag1681
ag1681
ag1
(g5
S'\x01wM\xb4\xe7\xea\x11@'
p1682
tp1683
Rp1684
ag1684
ag1684
ag1684
ag1684
ag1684
ag1684
ag1684
ag1684
ag1684
ag1684
ag1684
ag1684
ag1684
ag1684
ag1684
ag1684
ag1684
ag1684
ag1684
ag1684
ag1684
ag1684
ag1684
ag1684
ag1684
ag1684
ag1684
ag1684
ag1684
ag1
(g5
S"'\xd4\x1f\n)\xb0\x12@"
p1685
tp1686
Rp1687
ag1
(g5
S'\xca\xce\x99>g&\x1f@'
p1688
tp1689
Rp1690
ag1690
ag1
(g5
S"y'w\xb2HG\x15@"
p1691
tp1692
Rp1693
ag1693
ag1693
ag1693
ag1693
ag1693
ag1693
ag1693
ag1693
ag1
(g5
S'E\x82sP\x1e\xf5\x1b@'
p1694
tp1695
Rp1696
ag1696
ag1696
ag1696
ag1696
ag1
(g5
S'lN\xd1\xba\xd4\t\t@'
p1697
tp1698
Rp1699
ag1699
ag1699
ag1699
ag1699
ag1699
ag1699
ag1699
ag1699
ag1699
ag1699
ag1699
ag1699
ag1699
ag1699
ag1699
ag1699
ag1699
ag1699
ag1699
ag1699
ag1699
ag1699
ag1699
ag1699
ag1699
ag1699
ag1699
ag1699
ag1699
ag1699
ag1699
ag1699
ag1699
ag1699
ag1699
ag1699
ag1699
ag1699
ag1699
ag1699
ag1699
ag1699
ag1699
ag1699
ag1699
ag1699
ag1699
ag1699
ag1699
ag1699
ag1699
ag1699
ag1699
ag1699
ag1699
ag1699
ag1699
ag1699
ag1699
ag1699
ag1699
ag1699
ag1699
ag1699
ag1699
ag1699
ag1699
ag1699
ag1699
ag1699
ag1699
ag1699
ag1
(g5
S' \x99\xe4\x7f\xae\xd6\x11@'
p1700
tp1701
Rp1702
ag1702
ag1702
ag1702
ag1702
ag1702
ag1702
ag1702
ag1702
ag1702
ag1702
ag1
(g5
S'\xc7\xd4\xf7N\xb2\x19\x1f@'
p1703
tp1704
Rp1705
ag1705
ag1
(g5
S'\x86\x94\xa6\x8bD\x80\x15@'
p1706
tp1707
Rp1708
ag1708
ag1708
ag1708
ag1708
ag1708
ag1708
ag1708
ag1708
ag1708
ag1708
ag1708
ag1708
ag1708
ag1708
ag1708
ag1708
ag1708
ag1708
ag1708
ag1
(g5
S';\xb1\x18ap\x06\x18@'
p1709
tp1710
Rp1711
ag1711
ag1711
ag1711
ag1711
ag1711
ag1711
ag1711
ag1711
ag1711
ag1711
ag1711
ag1711
ag1711
ag1711
ag1
(g5
S'\xf1\x18\x19\xd3\x1e\x10!@'
p1712
tp1713
Rp1714
ag1714
ag1714
ag1714
ag1714
ag1714
ag1714
ag1
(g5
S'N\xe3\xee\x8e\x1e| @'
p1715
tp1716
Rp1717
ag1717
ag1717
ag1717
ag1717
ag1
(g5
S']\xe9=\xebFc\x18@'
p1718
tp1719
Rp1720
ag1720
ag1720
ag1
(g5
S'\xdd\x7f\xf1\x14i\xfe\x14@'
p1721
tp1722
Rp1723
ag1723
ag1723
ag1723
ag1723
ag1723
ag1723
ag1723
ag1723
ag1723
ag1723
ag1723
ag1723
ag1723
ag1723
ag1723
ag1723
ag1723
ag1723
ag1
(g5
S';>\xc6"J\x13\x13@'
p1724
tp1725
Rp1726
ag1726
ag1
(g5
S'(U1\xa2_J\x14@'
p1727
tp1728
Rp1729
ag1729
ag1729
ag1
(g5
S'\x10\xcfT\xcd\x1cJ\x19@'
p1730
tp1731
Rp1732
ag1732
ag1732
ag1732
ag1732
ag1732
ag1
(g5
S'\xf5\xf6M\xdbN1\x13@'
p1733
tp1734
Rp1735
ag1
(g5
S'8m.\x95\xf4\xde\x1a@'
p1736
tp1737
Rp1738
ag1738
ag1738
ag1738
ag1
(g5
S'\xca\xf2\xb2\x8eN\x16\x12@'
p1739
tp1740
Rp1741
ag1741
ag1741
ag1741
ag1741
ag1741
ag1741
ag1
(g5
S'\xbc\x8f\xf7\xa2\xdeG\x15@'
p1742
tp1743
Rp1744
ag1744
ag1744
ag1744
ag1744
ag1744
ag1744
ag1744
ag1744
ag1744
ag1744
ag1744
ag1744
ag1744
ag1744
ag1744
ag1744
ag1744
ag1
(g5
S'\xca\xf2\x9021\x92\x19@'
p1745
tp1746
Rp1747
ag1747
ag1747
ag1
(g5
S'\xe7\xd2\x0c<(\x95\x11@'
p1748
tp1749
Rp1750
ag1750
ag1750
ag1750
ag1750
ag1750
ag1750
ag1750
ag1
(g5
S'A\x83\x12\xec\xcdE\x19@'
p1751
tp1752
Rp1753
ag1753
ag1753
ag1753
ag1753
ag1753
ag1753
ag1753
ag1753
ag1753
ag1753
ag1753
ag1753
ag1753
ag1
(g5
S'\x0f`\xec{\xd1\x11,@'
p1754
tp1755
Rp1756
ag1
(g5
S'\x95\x92\xcf\xdcA\x7f\x14@'
p1757
tp1758
Rp1759
ag1759
ag1759
ag1759
ag1759
ag1
(g5
S'\x05\x93\x89\x1b"C\x1f@'
p1760
tp1761
Rp1762
ag1762
ag1
(g5
S'cY\x15\xc0\xaa\xee!@'
p1763
tp1764
Rp1765
ag1765
ag1765
ag1765
ag1765
ag1765
ag1
(g5
S'\xd7A\x13\xc0B\xeb\x14@'
p1766
tp1767
Rp1768
ag1768
ag1768
ag1768
ag1768
ag1
(g5
S'R\x9e=N<F\x0e@'
p1769
tp1770
Rp1771
ag1
(g5
S'\xd6;\xbe\xd6\xcfj\t@'
p1772
tp1773
Rp1774
ag1774
ag1774
ag1774
ag1774
ag1774
ag1
(g5
S'\x90\xde\xb64\x83z\x1a@'
p1775
tp1776
Rp1777
ag1777
ag1777
ag1777
ag1777
ag1777
ag1777
ag1777
ag1777
ag1777
ag1777
ag1777
ag1777
ag1777
ag1777
ag1777
ag1777
ag1777
ag1777
ag1777
ag1777
ag1777
ag1777
ag1777
ag1777
ag1777
ag1777
ag1777
ag1777
ag1777
ag1777
ag1777
ag1777
ag1777
ag1777
ag1777
ag1777
ag1777
ag1777
ag1777
ag1777
ag1777
ag1777
ag1777
ag1
(g5
S'\xbd\x9c\x88I\xc2\x82\x1a@'
p1778
tp1779
Rp1780
ag1780
ag1780
ag1780
ag1780
ag1
(g5
S'N`\xba\xadU;\x12@'
p1781
tp1782
Rp1783
ag1783
ag1783
ag1783
ag1783
ag1783
ag1783
ag1783
ag1783
ag1783
ag1783
ag1783
ag1783
ag1783
ag1783
ag1
(g5
S'w\x15$o]\x06\x13@'
p1784
tp1785
Rp1786
ag1786
ag1
(g5
S'$\xe0Q\xb9"\x1d\x1a@'
p1787
tp1788
Rp1789
ag1789
ag1789
ag1
(g5
S'\x1c(4\x85\xcb\xb8\x1a@'
p1790
tp1791
Rp1792
ag1792
ag1792
ag1792
ag1792
ag1792
ag1
(g5
S'8`\xd6\x1c\x05\xc8\x14@'
p1793
tp1794
Rp1795
ag1795
ag1795
ag1795
ag1795
ag1795
ag1795
ag1795
ag1795
ag1795
ag1795
ag1795
ag1795
ag1795
ag1795
ag1795
ag1795
ag1795
ag1795
ag1795
ag1
(g5
S'\x0e\xaa+h":\x1b@'
p1796
tp1797
Rp1798
ag1798
ag1798
ag1798
ag1798
ag1798
ag1798
ag1
(g5
S'\xa8P\xb51\x94\\\x12@'
p1799
tp1800
Rp1801
ag1801
ag1801
ag1801
ag1801
ag1801
ag1801
ag1801
ag1801
ag1801
ag1801
ag1801
ag1801
ag1801
ag1801
ag1801
ag1
(g5
S'G\xfb\x0b\xaf\r.\x15@'
p1802
tp1803
Rp1804
ag1804
ag1
(g5
S'\xa4\x96\x90\x92\x83\xc7\x19@'
p1805
tp1806
Rp1807
ag1807
ag1807
ag1807
ag1807
ag1
(g5
S'\xee>\xd9\xc57H\x1d@'
p1808
tp1809
Rp1810
ag1810
ag1810
ag1810
ag1
(g5
S'\x05\xf9\x89\xf8<u\x1d@'
p1811
tp1812
Rp1813
ag1813
ag1813
ag1813
ag1813
ag1813
ag1813
ag1813
ag1813
ag1813
ag1
(g5
S'\xb1\x7f\x89\xa2\x9f\xed\x1f@'
p1814
tp1815
Rp1816
ag1816
ag1816
ag1816
ag1
(g5
S'\xe9\x8a\xa1l\x07\xc9\x1c@'
p1817
tp1818
Rp1819
ag1
(g5
S'+\xfe\x83a\xc4\n\x1b@'
p1820
tp1821
Rp1822
ag1822
ag1822
ag1822
ag1822
ag1822
ag1822
ag1822
ag1
(g5
S'\xc2\xe2\xee\x14\x13\xd0\x1d@'
p1823
tp1824
Rp1825
ag1825
ag1825
ag1825
ag1
(g5
S'\xc7\xb9\x0b\xcd\x9f\x82\x10@'
p1826
tp1827
Rp1828
ag1828
ag1828
ag1828
ag1828
ag1828
ag1828
ag1
(g5
S'J\xfcN9\x00[\x14@'
p1829
tp1830
Rp1831
ag1
(g5
S'\xcd~\xba\xee\xa2\xe1\x16@'
p1832
tp1833
Rp1834
ag1834
ag1834
ag1834
ag1834
ag1834
ag1834
ag1
(g5
S'h\x1aD\xd0\n\xb5\n@'
p1835
tp1836
Rp1837
ag1837
ag1837
ag1837
ag1837
ag1837
ag1837
ag1837
ag1
(g5
S'I\x009\x00D\xfc\x15@'
p1838
tp1839
Rp1840
ag1840
ag1840
ag1840
ag1
(g5
S'\x88\xf2/4\xec$\x14@'
p1841
tp1842
Rp1843
ag1843
ag1843
ag1843
ag1843
ag1843
ag1843
ag1843
ag1843
ag1843
ag1843
ag1843
ag1843
ag1843
ag1843
ag1
(g5
S'Te\xc1\xc3\xd3\x07\x1b@'
p1844
tp1845
Rp1846
ag1846
ag1846
ag1
(g5
S'\xdd\xe4=P(\xf8\x17@'
p1847
tp1848
Rp1849
ag1
(g5
S'1A\xb0\x1f\xcc\xda\x10@'
p1850
tp1851
Rp1852
ag1852
ag1852
ag1852
ag1852
ag1852
ag1852
ag1852
ag1852
ag1852
ag1852
ag1852
ag1852
ag1852
ag1852
ag1852
ag1852
ag1852
ag1852
ag1852
ag1852
ag1852
ag1
(g5
S'\xa8F\x8d\xad\n\xdf\x1b@'
p1853
tp1854
Rp1855
ag1855
ag1
(g5
S"p \x01'<$\x14@"
p1856
tp1857
Rp1858
ag1858
ag1858
ag1858
ag1858
ag1858
ag1858
ag1858
ag1858
ag1858
ag1858
ag1858
ag1858
ag1858
ag1858
ag1858
ag1858
ag1858
ag1858
ag1
(g5
S'o\xf1G\xa2\xc7s\x14@'
p1859
tp1860
Rp1861
ag1861
ag1861
ag1861
ag1861
ag1861
ag1861
ag1861
ag1861
ag1861
ag1861
ag1861
ag1861
ag1
(g5
S'\xc1M@\xc9\x98m\x1a@'
p1862
tp1863
Rp1864
ag1864
ag1864
ag1864
ag1864
ag1864
ag1864
ag1864
ag1864
ag1864
ag1864
ag1864
ag1864
ag1864
ag1864
ag1864
ag1864
ag1864
ag1864
ag1864
ag1864
ag1864
ag1864
ag1864
ag1864
ag1864
ag1864
ag1864
ag1864
ag1864
ag1864
ag1864
ag1864
ag1864
ag1864
ag1864
ag1864
ag1864
ag1864
ag1864
ag1864
ag1864
ag1864
ag1864
ag1864
ag1864
ag1864
ag1864
ag1864
ag1
(g5
S'\x00\x11\xb5\xdeq8\x17@'
p1865
tp1866
Rp1867
ag1867
ag1
(g5
S'\xbc\xad\xf9\x8ef\xe6\x15@'
p1868
tp1869
Rp1870
ag1870
ag1870
ag1870
ag1
(g5
S'\x0e\xe6\xb6\xc6\x0bz\x12@'
p1871
tp1872
Rp1873
ag1873
ag1873
ag1873
ag1873
ag1873
ag1873
ag1873
ag1
(g5
S'\xb2\xf5\xec)\xea\x11\x1c@'
p1874
tp1875
Rp1876
ag1876
ag1876
ag1876
ag1876
ag1876
ag1876
ag1876
ag1
(g5
S'\xfab\x8e\xbe\xfa!\x1e@'
p1877
tp1878
Rp1879
ag1879
ag1879
ag1879
ag1879
ag1879
ag1879
ag1879
ag1879
ag1
(g5
S'\xd8dr\xf3\xa5\x90!@'
p1880
tp1881
Rp1882
ag1882
ag1882
ag1882
ag1882
ag1
(g5
S'\x02Q\xc4\xb7\n\xb1\x1d@'
p1883
tp1884
Rp1885
ag1
(g5
S'\x85\x1d\xa2\x0e\x8aj"@'
p1886
tp1887
Rp1888
ag1
(g5
S'\x05\x8f\xed|\x0b\xe5!@'
p1889
tp1890
Rp1891
ag1891
ag1891
ag1891
ag1891
ag1891
ag1891
ag1891
ag1891
ag1891
ag1
(g5
S'\xdc\xee\x03\xd1\xab\x8b%@'
p1892
tp1893
Rp1894
ag1894
ag1894
ag1894
ag1894
ag1
(g5
S'5\n\xee\x8d"" @'
p1895
tp1896
Rp1897
ag1897
ag1897
ag1897
ag1
(g5
S'\xcb\xb6\xb5\r\x8b\xb2\x17@'
p1898
tp1899
Rp1900
ag1900
ag1900
ag1900
ag1900
ag1900
ag1900
ag1900
ag1
(g5
S'\x94,\xfc\xd5\xf8H\x16@'
p1901
tp1902
Rp1903
ag1903
ag1903
ag1
(g5
S'r\x8d\x9ax\x8eY\x18@'
p1904
tp1905
Rp1906
ag1906
ag1906
ag1
(g5
S'l\xaf\xd7\xec$<\x1a@'
p1907
tp1908
Rp1909
ag1909
ag1909
ag1
(g5
S'\x81\xa9,\x9a\xcf\x19\x1c@'
p1910
tp1911
Rp1912
ag1912
ag1912
ag1912
ag1912
ag1912
ag1
(g5
S'\xdf\xa2\x91c\xc5\xa1#@'
p1913
tp1914
Rp1915
ag1915
ag1915
ag1
(g5
S'\xf8\xee\xae\xa3\x0ey$@'
p1916
tp1917
Rp1918
ag1
(g5
S'h\xc8\xe1\x01t\xc1%@'
p1919
tp1920
Rp1921
ag1921
ag1921
ag1921
ag1
(g5
S'\x89\xf5=\x1b\t\xb8 @'
p1922
tp1923
Rp1924
ag1
(g5
S'\x17\x94\xdf\xe7\x81\xfc\x1f@'
p1925
tp1926
Rp1927
ag1927
ag1
(g5
S'\x06\xff@n\x16\xe7\x12@'
p1928
tp1929
Rp1930
ag1930
ag1930
ag1930
ag1930
ag1930
ag1930
ag1930
ag1930
ag1930
ag1930
ag1930
ag1930
ag1930
ag1930
ag1930
ag1930
ag1930
ag1930
ag1930
ag1930
ag1930
ag1930
ag1930
ag1930
ag1930
ag1930
ag1930
ag1930
ag1930
ag1930
ag1930
ag1930
ag1930
ag1930
ag1
(g5
S'\x8ea\x97X\x13\xe0\x1d@'
p1931
tp1932
Rp1933
ag1933
ag1933
ag1933
ag1933
ag1933
ag1933
ag1933
ag1
(g5
S'p\xc7\x87\x1egX\x1c@'
p1934
tp1935
Rp1936
ag1936
ag1936
ag1
(g5
S'\xf2\x00\xfaA[j\x17@'
p1937
tp1938
Rp1939
ag1939
ag1939
ag1
(g5
S'(.\xa1\x0c\x96\x17\x17@'
p1940
tp1941
Rp1942
ag1942
ag1942
ag1
(g5
S'>\xb0:\xa3\xca\xd7\x11@'
p1943
tp1944
Rp1945
ag1945
ag1945
ag1945
ag1945
ag1945
ag1945
ag1
(g5
S'\x96z%\xe1\xdb\xac\x1d@'
p1946
tp1947
Rp1948
ag1948
ag1
(g5
S'`\xab<\xf9$\xe4\x15@'
p1949
tp1950
Rp1951
ag1951
ag1951
ag1951
ag1951
ag1951
ag1951
ag1951
ag1951
ag1951
ag1951
ag1951
ag1951
ag1951
ag1951
ag1951
ag1951
ag1951
ag1951
ag1951
ag1951
ag1
(g5
S'\x18\xed\xda\x1eY\xfa\x15@'
p1952
tp1953
Rp1954
ag1954
ag1954
ag1
(g5
S'\x8e\xc0\x9a\xdbu\xb2\x17@'
p1955
tp1956
Rp1957
ag1
(g5
S'\xec>\xf5Q\xf3h\x1e@'
p1958
tp1959
Rp1960
ag1960
ag1960
ag1
(g5
S'\x80\x0b\x9d\xb7B\x9d"@'
p1961
tp1962
Rp1963
ag1
(g5
S'\xb6\xaf\x04\xa5\xb8D\x1f@'
p1964
tp1965
Rp1966
ag1966
ag1966
ag1966
ag1966
ag1
(g5
S'\x0f\x83\xdbB\xc9\xbc\x16@'
p1967
tp1968
Rp1969
ag1969
ag1969
ag1969
ag1969
ag1969
ag1969
ag1969
ag1
(g5
S'\xec\xd8\xce\xe9\x90\xdb(@'
p1970
tp1971
Rp1972
ag1972
ag1972
ag1972
ag1972
ag1972
ag1
(g5
S'V\x10\xcfP6\xa7%@'
p1973
tp1974
Rp1975
ag1975
ag1
(g5
S'\x9b\x1f\x1c\xb8^\x0c\x19@'
p1976
tp1977
Rp1978
ag1978
ag1978
ag1978
ag1978
ag1978
ag1978
ag1978
ag1
(g5
S'\xba\xe6,T\xd4\xee\x1f@'
p1979
tp1980
Rp1981
ag1981
ag1
(g5
S'J\x8e|\x94\x12O\x1e@'
p1982
tp1983
Rp1984
ag1
(g5
S'\x9a\xd8\x1b<d1\x1e@'
p1985
tp1986
Rp1987
ag1987
ag1987
ag1987
ag1987
ag1
(g5
S'\xb6\xf5\xb1\xc43E\x1d@'
p1988
tp1989
Rp1990
ag1
(g5
S'sRWr\x0c\x1f\x1d@'
p1991
tp1992
Rp1993
ag1993
ag1993
ag1993
ag1993
ag1993
ag1993
ag1993
ag1993
ag1993
ag1993
ag1
(g5
S'3\xb4Nd\x90\xef%@'
p1994
tp1995
Rp1996
ag1
(g5
S'\x0ei6\xa1\xd9\xd1(@'
p1997
tp1998
Rp1999
ag1
(g5
S'\x11\xb2^:\xc7\xd5(@'
p2000
tp2001
Rp2002
ag2002
ag2002
ag2002
ag2002
ag1
(g5
S'\x0eY\xac\xf1\xa8r(@'
p2003
tp2004
Rp2005
ag2005
ag1
(g5
S'N\xfc\x97\x97\x01d\x1f@'
p2006
tp2007
Rp2008
ag2008
ag2008
ag2008
ag2008
ag2008
ag2008
ag2008
ag2008
ag2008
ag2008
ag2008
ag2008
ag2008
ag2008
ag1
(g5
S'\xce0 \xa4\xb3.)@'
p2009
tp2010
Rp2011
ag2011
ag2011
ag2011
ag1
(g5
S'\x81\xa7\xc4\xad1T!@'
p2012
tp2013
Rp2014
ag2014
ag2014
ag2014
ag2014
ag2014
ag2014
ag2014
ag2014
ag2014
ag2014
ag1
(g5
S'\xfcw\xdf\x82.q\x1c@'
p2015
tp2016
Rp2017
ag2017
ag2017
ag1
(g5
S"\x9e|'V\xde\x8b @"
p2018
tp2019
Rp2020
ag1
(g5
S'\xf9^8\xf9?\xc0\x1e@'
p2021
tp2022
Rp2023
ag2023
ag2023
ag2023
ag2023
ag2023
ag2023
ag2023
ag2023
ag2023
ag2023
ag2023
ag2023
ag2023
ag2023
ag2023
ag2023
ag2023
ag2023
ag2023
ag2023
ag2023
ag1
(g5
S'\xeaNh\xa9\x98\x88$@'
p2024
tp2025
Rp2026
ag1
(g5
S'\xcd-\xb6\x90\x19\x9d#@'
p2027
tp2028
Rp2029
ag2029
ag2029
ag2029
ag2029
ag2029
ag2029
ag2029
ag2029
ag2029
ag1
(g5
S'x3\x94\xae\xc63#@'
p2030
tp2031
Rp2032
ag1
(g5
S'\xce\xb9\x17\x17\x0f[\x1d@'
p2033
tp2034
Rp2035
ag2035
ag2035
ag2035
ag2035
ag2035
ag2035
ag2035
ag2035
ag2035
ag2035
ag2035
ag2035
ag2035
ag2035
ag2035
ag1
(g5
S'>\x16.\x05\x02" @'
p2036
tp2037
Rp2038
ag2038
ag1
(g5
S'\xfa\xe6&\xb6\x88\xc3 @'
p2039
tp2040
Rp2041
ag2041
ag2041
ag2041
ag2041
ag2041
ag1
(g5
S'\xd0\xb7\x13\xd2-\xb4!@'
p2042
tp2043
Rp2044
ag1
(g5
S'x\xb1\x941;\xa4#@'
p2045
tp2046
Rp2047
ag1
(g5
S'\xe6\xeazW\x92\xdc$@'
p2048
tp2049
Rp2050
ag2050
ag2050
ag2050
ag1
(g5
S'\xd4e\x9dM\xd5\x1a2@'
p2051
tp2052
Rp2053
ag2053
ag2053
ag2053
ag1
(g5
S'x\xc6\xe0\xceDq!@'
p2054
tp2055
Rp2056
ag2056
ag2056
ag2056
ag2056
ag1
(g5
S'\xc6\x1b\xc6\xd9\xda\x93(@'
p2057
tp2058
Rp2059
ag2059
ag2059
ag2059
ag2059
ag2059
ag1
(g5
S'[\xcaq\t\xb2\xb2*@'
p2060
tp2061
Rp2062
ag2062
ag2062
ag1
(g5
S"\x90\x05\xf8\x1dWV'@"
p2063
tp2064
Rp2065
ag2065
ag1
(g5
S'Sl\x9b\xf1H\xb9"@'
p2066
tp2067
Rp2068
ag2068
ag2068
ag2068
ag2068
ag2068
ag2068
ag2068
ag2068
ag2068
ag1
(g5
S'\xae*k\xf7\x98\xf1,@'
p2069
tp2070
Rp2071
ag1
(g5
S'g?\xfee|\x90\x19@'
p2072
tp2073
Rp2074
ag2074
ag2074
ag2074
ag2074
ag2074
ag2074
ag2074
ag2074
ag2074
ag2074
ag2074
ag2074
ag2074
ag2074
ag1
(g5
S'\xae{\xb2)\x07\x1e @'
p2075
tp2076
Rp2077
ag2077
ag2077
ag2077
ag2077
ag2077
ag2077
ag2077
ag2077
ag2077
ag2077
ag2077
ag2077
ag2077
ag1
(g5
S'\x0b\x07\xd6\xd7\xca\xae\x19@'
p2078
tp2079
Rp2080
ag1
(g5
S'Lj\xf1.\x08\xf3\x18@'
p2081
tp2082
Rp2083
ag2083
ag2083
ag2083
ag2083
ag2083
ag2083
ag2083
ag2083
ag2083
ag2083
ag2083
ag2083
ag1
(g5
S'\x84P;\x8e\xf2M\x17@'
p2084
tp2085
Rp2086
ag2086
ag2086
ag2086
ag2086
ag2086
ag2086
ag2086
ag2086
ag2086
ag2086
ag2086
ag2086
ag1
(g5
S'\xf6VB\xe8\xaf>\x14@'
p2087
tp2088
Rp2089
ag2089
ag2089
ag2089
ag2089
ag2089
ag2089
ag2089
ag2089
ag2089
ag2089
ag2089
ag2089
ag2089
ag2089
ag2089
ag2089
ag2089
ag2089
ag2089
ag2089
ag2089
ag2089
ag2089
ag2089
ag2089
ag2089
ag1
(g5
S'\t\xe4t\xb4\x93\xb7#@'
p2090
tp2091
Rp2092
ag1
(g5
S'\xd0\xe6&\x98\xe3\x9f!@'
p2093
tp2094
Rp2095
ag2095
ag2095
ag1
(g5
S'\xe8q#\x07\xd6H\x1d@'
p2096
tp2097
Rp2098
ag2098
ag2098
ag2098
ag2098
ag1
(g5
S'62\xde\xf1\x1d\xa3\x1f@'
p2099
tp2100
Rp2101
ag2101
ag1
(g5
S'\xde\xb5\x96\x1c\x9a\xa8\x1e@'
p2102
tp2103
Rp2104
ag2104
ag2104
ag2104
ag1
(g5
S'=\x833\x86oG\x17@'
p2105
tp2106
Rp2107
ag2107
ag2107
ag2107
ag2107
ag2107
ag2107
ag2107
ag2107
ag2107
ag2107
ag2107
ag2107
ag2107
ag2107
ag2107
ag2107
ag2107
ag2107
ag2107
ag2107
ag2107
ag2107
ag2107
ag2107
ag2107
ag2107
ag2107
ag2107
ag1
(g5
S'\xcbX\x1d\x96\xed\x1c#@'
p2108
tp2109
Rp2110
ag2110
ag1
(g5
S'\xd4a\xc4\xd46\x83$@'
p2111
tp2112
Rp2113
ag2113
ag2113
ag2113
ag2113
ag2113
ag2113
ag1
(g5
S'\xb0\x8cq\xdaw\x0f\x16@'
p2114
tp2115
Rp2116
ag2116
ag1
(g5
S'\xb9qZW\xdf\xa0$@'
p2117
tp2118
Rp2119
ag2119
ag2119
ag2119
ag2119
ag2119
ag2119
ag1
(g5
S'pz\xd7\x1c\x8c\xed\x1e@'
p2120
tp2121
Rp2122
ag2122
ag2122
ag2122
ag2122
ag2122
ag2122
ag1
(g5
S'\xb9\xd9\xed\xd1\xf4\x16\x16@'
p2123
tp2124
Rp2125
ag2125
ag2125
ag2125
ag2125
ag2125
ag2125
ag2125
ag2125
ag1
(g5
S'Y\xda\xe4\xd6\xcb\t\x14@'
p2126
tp2127
Rp2128
ag2128
ag2128
ag1
(g5
S'\xf0 \xac\xd1&\xa5\x14@'
p2129
tp2130
Rp2131
ag2131
ag2131
ag2131
ag2131
ag2131
ag2131
ag2131
ag2131
ag2131
ag2131
ag2131
ag2131
ag2131
ag2131
ag2131
ag2131
ag2131
ag2131
ag2131
ag2131
ag1
(g5
S'\x18\xdb\xcd\xd8\x97b\x18@'
p2132
tp2133
Rp2134
ag2134
ag2134
ag2134
ag2134
ag1
(g5
S'F,\xd5\x83\xb3&\x14@'
p2135
tp2136
Rp2137
ag2137
ag2137
ag2137
ag2137
ag2137
ag1
(g5
S'S\xcb\xa0\xa2\t\xe4\x18@'
p2138
tp2139
Rp2140
ag2140
ag2140
ag2140
ag2140
ag1
(g5
S'\xbb\x81\x8c\xf9dg\x1a@'
p2141
tp2142
Rp2143
ag2143
ag2143
ag2143
ag2143
ag2143
ag2143
ag2143
ag2143
ag2143
ag2143
ag2143
ag2143
ag2143
ag2143
ag2143
ag2143
ag2143
ag1
(g5
S'\x9b\x13\xec\x97\x94\x92\x17@'
p2144
tp2145
Rp2146
ag2146
ag2146
ag1
(g5
S'\xe3l\xa8Q\x18C\x1b@'
p2147
tp2148
Rp2149
ag2149
ag2149
ag1
(g5
S'\xbb\x15LG\xbf\x17\x18@'
p2150
tp2151
Rp2152
ag2152
ag2152
ag2152
ag2152
ag2152
ag2152
ag2152
ag2152
ag2152
ag2152
ag2152
ag2152
ag2152
ag2152
ag2152
ag2152
ag2152
ag1
(g5
S'[\xb1\xa8\xd6U^ @'
p2153
tp2154
Rp2155
ag2155
ag2155
ag1
(g5
S'\xf8\x98\x1b\xb9\x08\x92 @'
p2156
tp2157
Rp2158
ag2158
ag2158
ag2158
ag2158
ag2158
ag2158
ag2158
ag1
(g5
S'dXc\xb2\xce\x1e\x14@'
p2159
tp2160
Rp2161
ag2161
ag2161
ag1
(g5
S'}\x1a\xc4||\xb7\x18@'
p2162
tp2163
Rp2164
ag2164
ag2164
ag2164
ag2164
ag2164
ag2164
ag1
(g5
S'\xb2\x02\xfdq\x0f\x03\x1f@'
p2165
tp2166
Rp2167
ag2167
ag2167
ag1
(g5
S'j\x9c\xe3n\x984\x1a@'
p2168
tp2169
Rp2170
ag2170
ag2170
ag2170
ag2170
ag2170
ag2170
ag2170
ag2170
ag2170
ag2170
ag2170
ag2170
ag2170
ag2170
ag1
(g5
S'KOm\x04ZT\x1b@'
p2171
tp2172
Rp2173
ag2173
ag2173
ag1
(g5
S'\x02s\xc2\xea\xfe\xe2\x17@'
p2174
tp2175
Rp2176
ag2176
ag2176
ag1
(g5
S'\\\xa2[Q8I#@'
p2177
tp2178
Rp2179
ag2179
ag2179
ag2179
ag2179
ag2179
ag2179
ag2179
ag1
(g5
S'\xc6\xaaK\x96jC0@'
p2180
tp2181
Rp2182
ag1
(g5
S'\xc5\x8b\xa1\x07\xd1U\x17@'
p2183
tp2184
Rp2185
ag2185
ag2185
ag2185
ag2185
ag2185
ag2185
ag2185
ag2185
ag2185
ag2185
ag2185
ag2185
ag2185
ag2185
ag2185
ag2185
ag2185
ag2185
ag2185
ag2185
ag2185
ag2185
ag2185
ag2185
ag2185
ag2185
ag1
(g5
S'\xa4\xb8\xe8wNL\x1d@'
p2186
tp2187
Rp2188
ag1
(g5
S'p!\xe6@)\x93\x19@'
p2189
tp2190
Rp2191
ag2191
ag2191
ag2191
ag2191
ag1
(g5
S'\x1eB(\xf4xp\x14@'
p2192
tp2193
Rp2194
ag2194
ag2194
ag2194
ag2194
ag2194
ag2194
ag1
(g5
S"YwSv'g @"
p2195
tp2196
Rp2197
ag2197
ag1
(g5
S'\xaab"\xe1\xd2 \x1e@'
p2198
tp2199
Rp2200
ag2200
ag2200
ag2200
ag2200
ag2200
ag2200
ag2200
ag2200
ag2200
ag2200
ag2200
ag2200
ag2200
ag2200
ag2200
ag1
(g5
S'<\xd8\xb5\xee\xa3\x96\x1a@'
p2201
tp2202
Rp2203
ag1
(g5
S';r^H=\x93!@'
p2204
tp2205
Rp2206
ag2206
ag2206
ag2206
ag2206
ag2206
ag2206
ag2206
ag2206
ag2206
ag1
(g5
S'M\xcb\xd4\x8e_\xec @'
p2207
tp2208
Rp2209
ag1
(g5
S'\xe7\x0cwk\xf3\xd8\x18@'
p2210
tp2211
Rp2212
ag2212
ag2212
ag1
(g5
S'8\xfbq\xa3\x8f\xf4\x18@'
p2213
tp2214
Rp2215
ag2215
ag2215
ag2215
ag2215
ag2215
ag2215
ag1
(g5
S'Zd-B\x94\x87#@'
p2216
tp2217
Rp2218
ag2218
ag1
(g5
S'\x0b?H\xbbT\xeb\x17@'
p2219
tp2220
Rp2221
ag2221
ag2221
ag2221
ag2221
ag2221
ag2221
ag2221
ag2221
ag2221
ag2221
ag2221
ag2221
ag2221
ag2221
ag2221
ag1
(g5
S'\x0c^h\xa6\x93\xd0\x12@'
p2222
tp2223
Rp2224
ag2224
ag2224
ag2224
ag2224
ag2224
ag2224
ag2224
ag2224
ag2224
ag2224
ag2224
ag2224
ag2224
ag2224
ag2224
ag2224
ag2224
ag2224
ag2224
ag2224
ag2224
ag2224
ag2224
ag2224
ag2224
ag2224
ag2224
ag2224
ag2224
ag2224
ag2224
ag2224
ag2224
ag2224
ag2224
ag2224
ag2224
ag2224
ag2224
ag2224
ag2224
ag2224
ag2224
ag2224
ag2224
ag2224
ag2224
ag2224
ag2224
ag2224
ag2224
ag2224
ag2224
ag2224
ag2224
ag2224
ag2224
ag2224
ag2224
ag2224
ag2224
ag2224
ag2224
ag2224
ag2224
ag2224
ag2224
ag2224
ag2224
ag2224
ag2224
ag1
(g5
S'p\xd9\xd8\xe5U\xed\x12@'
p2225
tp2226
Rp2227
ag2227
ag2227
ag2227
ag2227
ag2227
ag2227
ag2227
ag2227
ag2227
ag2227
ag2227
ag2227
ag2227
ag2227
ag2227
ag2227
ag2227
ag2227
ag2227
ag2227
ag2227
ag2227
ag2227
ag2227
ag2227
ag2227
ag2227
ag2227
ag2227
ag2227
ag2227
ag2227
ag2227
ag2227
ag2227
ag2227
ag2227
ag2227
ag2227
ag2227
ag2227
ag2227
ag2227
ag2227
ag1
(g5
S'b\xa7\xe1<k\xa1\x16@'
p2228
tp2229
Rp2230
ag1
(g5
S'\x93F\xc4\xb4S\xd0\x1c@'
p2231
tp2232
Rp2233
ag2233
ag2233
ag2233
ag2233
ag2233
ag2233
ag2233
ag2233
ag2233
ag2233
ag2233
ag2233
ag2233
ag2233
ag1
(g5
S'\xc1\x00N%v\x8b\x1e@'
p2234
tp2235
Rp2236
ag2236
ag1
(g5
S'\x8f\xea\xf6\xc3#\x94\x16@'
p2237
tp2238
Rp2239
ag2239
ag2239
ag2239
ag2239
ag2239
ag2239
ag2239
ag2239
ag2239
ag2239
ag2239
ag2239
ag2239
ag2239
ag2239
ag2239
ag2239
ag2239
ag2239
ag2239
ag2239
ag2239
ag2239
ag2239
ag2239
ag2239
ag2239
ag2239
ag2239
ag2239
ag2239
ag1
(g5
S'\x1d\x0e\x16\t\x84\xf5\x19@'
p2240
tp2241
Rp2242
ag2242
ag2242
ag1
(g5
S'4-H\x86\xd9J\x13@'
p2243
tp2244
Rp2245
ag2245
ag2245
ag2245
ag2245
ag2245
ag2245
ag2245
ag1
(g5
S'L\xe0{\xab/8\x14@'
p2246
tp2247
Rp2248
ag2248
ag2248
ag2248
ag1
(g5
S'l\xcf8\xbeM\x91!@'
p2249
tp2250
Rp2251
ag2251
ag2251
ag2251
ag2251
ag2251
ag2251
ag1
(g5
S'\xac\xf2\xde3\x8b\xf4!@'
p2252
tp2253
Rp2254
ag2254
ag2254
ag2254
ag2254
ag2254
ag2254
ag2254
ag2254
ag1
(g5
S'\xbcu\xf8\x95G\xb4#@'
p2255
tp2256
Rp2257
ag2257
ag2257
ag2257
ag2257
ag1
(g5
S'\x9f\xde/R0b&@'
p2258
tp2259
Rp2260
ag2260
ag1
(g5
S'\xf2O\n\x13\xbe\xa0\x14@'
p2261
tp2262
Rp2263
ag2263
ag2263
ag2263
ag2263
ag2263
ag2263
ag2263
ag2263
ag1
(g5
S'\x9b\xf4q\xd8f|\x15@'
p2264
tp2265
Rp2266
ag2266
ag2266
ag2266
ag1
(g5
S'\xfd\xc2\x0f\xbb\x7f>\x1c@'
p2267
tp2268
Rp2269
ag2269
ag2269
ag2269
ag2269
ag1
(g5
S'\xae\xf3\xae\xb119\x14@'
p2270
tp2271
Rp2272
ag2272
ag2272
ag2272
ag2272
ag2272
ag2272
ag2272
ag2272
ag2272
ag2272
ag2272
ag2272
ag1
(g5
S'\xa2m\xa0\xb2\x82q\x17@'
p2273
tp2274
Rp2275
ag2275
ag1
(g5
S'\xa8\xb0\xd4\xd0o\t\x1b@'
p2276
tp2277
Rp2278
ag2278
ag2278
ag2278
ag2278
ag2278
ag2278
ag2278
ag2278
ag2278
ag2278
ag2278
ag1
(g5
S'1\x1fIs\xe3h\x13@'
p2279
tp2280
Rp2281
ag2281
ag2281
ag2281
ag2281
ag2281
ag1
(g5
S'\x06f\xa3B5X#@'
p2282
tp2283
Rp2284
ag2284
ag2284
ag2284
ag2284
ag2284
ag2284
ag1
(g5
S'\xf5\xf7u\xfe\xcf8"@'
p2285
tp2286
Rp2287
ag2287
ag2287
ag1
(g5
S'^\xe9p\x81\xbe%"@'
p2288
tp2289
Rp2290
ag2290
ag2290
ag2290
ag2290
ag2290
ag2290
ag2290
ag2290
ag2290
ag2290
ag2290
ag2290
ag2290
ag2290
ag2290
ag2290
ag2290
ag1
(g5
S'9\x8e\x98LP\xe4#@'
p2291
tp2292
Rp2293
ag2293
ag1
(g5
S'`\xdc?\x1a#;\x15@'
p2294
tp2295
Rp2296
ag2296
ag2296
ag2296
ag2296
ag2296
ag2296
ag2296
ag2296
ag2296
ag2296
ag2296
ag2296
ag2296
ag2296
ag2296
ag2296
ag2296
ag2296
ag2296
ag2296
ag2296
ag2296
ag2296
ag2296
ag2296
ag2296
ag2296
ag2296
ag2296
ag2296
ag2296
ag2296
ag1
(g5
S'\xab\xf9\x1ao\x16\xe1!@'
p2297
tp2298
Rp2299
ag2299
ag2299
ag2299
ag2299
ag1
(g5
S'\xbd\x90\xa35{\xe1\x1d@'
p2300
tp2301
Rp2302
ag1
(g5
S'\xef\xef\xd4\xf7\x99\x12\x1c@'
p2303
tp2304
Rp2305
ag2305
ag2305
ag2305
ag2305
ag2305
ag2305
ag2305
ag1
(g5
S'\x1ei\xa4\xc9\xb4\xc4\x1c@'
p2306
tp2307
Rp2308
ag2308
ag2308
ag2308
ag2308
ag2308
ag2308
ag2308
ag2308
ag2308
ag2308
ag2308
ag2308
ag2308
ag2308
ag2308
ag2308
ag2308
ag2308
ag2308
ag2308
ag2308
ag1
(g5
S'\x7f_\xa4\xc0\x81\xd0%@'
p2309
tp2310
Rp2311
ag1
(g5
S'\x9a\xa7\t\xa5\xf4\xba\x1f@'
p2312
tp2313
Rp2314
ag2314
ag2314
ag2314
ag2314
ag1
(g5
S'[\xd3\xc1\xa6_:\x1d@'
p2315
tp2316
Rp2317
ag2317
ag2317
ag2317
ag2317
ag2317
ag2317
ag2317
ag1
(g5
S'\x1eU\xb8!\xdc\x90\x1e@'
p2318
tp2319
Rp2320
ag2320
ag2320
ag2320
ag2320
ag2320
ag2320
ag2320
ag2320
ag2320
ag2320
ag2320
ag2320
ag2320
ag2320
ag2320
ag2320
ag2320
ag2320
ag2320
ag2320
ag2320
ag2320
ag2320
ag2320
ag1
(g5
S'\x9e%\xbc\x14\xac\xd6&@'
p2321
tp2322
Rp2323
ag2323
ag1
(g5
S'\xa7^\x92\xe6\xf2^%@'
p2324
tp2325
Rp2326
ag1
(g5
S'\xe8v\x98p3\xba)@'
p2327
tp2328
Rp2329
ag1
(g5
S'B\xce\xb0\x9f\xbf~!@'
p2330
tp2331
Rp2332
ag2332
ag2332
ag2332
ag2332
ag2332
ag2332
ag2332
ag2332
ag2332
ag2332
ag2332
ag1
(g5
S'\x16\x81\xb3a\xed\x88"@'
p2333
tp2334
Rp2335
ag2335
ag2335
ag2335
ag2335
ag2335
ag1
(g5
S'\x0f\xb6{\xcd\xa6\x8b%@'
p2336
tp2337
Rp2338
ag2338
ag2338
ag1
(g5
S'\x1cP\x04 \xa4H!@'
p2339
tp2340
Rp2341
ag1
(g5
S'A\xaai\xa9\x90\xba!@'
p2342
tp2343
Rp2344
ag2344
ag2344
ag2344
ag2344
ag2344
ag2344
ag1
(g5
S"Vy\x7f\xbe^'/@"
p2345
tp2346
Rp2347
ag1
(g5
S'\xbc\x86\xeb\xa6\x93\xc10@'
p2348
tp2349
Rp2350
ag2350
ag2350
ag1
(g5
S'Q\x97\xe8;\xe4R#@'
p2351
tp2352
Rp2353
ag2353
ag2353
ag2353
ag2353
ag1
(g5
S'\xa0\xb9\xedZ\r\x9d&@'
p2354
tp2355
Rp2356
ag2356
ag2356
ag1
(g5
S'/\x91\x13^\xe3\xb6"@'
p2357
tp2358
Rp2359
ag2359
ag1
(g5
S'p\xbe\x01\x0f\xb3\xa0%@'
p2360
tp2361
Rp2362
ag2362
ag2362
ag2362
ag1
(g5
S'\xe5N\x94)\xf4\xb8 @'
p2363
tp2364
Rp2365
ag2365
ag2365
ag2365
ag2365
ag2365
ag2365
ag2365
ag2365
ag2365
ag2365
ag2365
ag2365
ag2365
ag1
(g5
S'\xd3\x90\x88\x1a\xdc5%@'
p2366
tp2367
Rp2368
ag2368
ag2368
ag2368
ag2368
ag2368
ag1
(g5
S'lyB\x16\xeb\xba#@'
p2369
tp2370
Rp2371
ag2371
ag2371
ag1
(g5
S'\x12cX!\xf9\x9b"@'
p2372
tp2373
Rp2374
ag2374
ag2374
ag2374
ag2374
ag2374
ag2374
ag2374
ag2374
ag1
(g5
S"\xbf\x8b\x86;\x0f\xbc'@"
p2375
tp2376
Rp2377
ag2377
ag2377
ag2377
ag1
(g5
S'\xcc\xd1\x08\xf6\xf1\x91"@'
p2378
tp2379
Rp2380
ag1
(g5
S'\xabm\xd0Yk\x87\x16@'
p2381
tp2382
Rp2383
ag2383
ag2383
ag2383
ag2383
ag2383
ag2383
ag2383
ag2383
ag2383
ag2383
ag2383
ag2383
ag2383
ag2383
ag2383
ag2383
ag1
(g5
S'\xbc\xa1.\xa2x\x8b @'
p2384
tp2385
Rp2386
ag2386
ag1
(g5
S'j\xe0\n\xe9A\xb0\x1d@'
p2387
tp2388
Rp2389
ag2389
ag2389
ag2389
ag2389
ag2389
ag2389
ag2389
ag2389
ag1
(g5
S'4f\xefN\xb8%%@'
p2390
tp2391
Rp2392
ag2392
ag2392
ag1
(g5
S'\xaa\x08\xb4\x91\xab)%@'
p2393
tp2394
Rp2395
ag2395
ag2395
ag2395
ag2395
ag2395
ag2395
ag1
(g5
S'"F=\x1b\xf9\xb3\x1d@'
p2396
tp2397
Rp2398
ag2398
ag2398
ag2398
ag2398
ag2398
ag1
(g5
S':\xe0\ng\x99\xad\x1f@'
p2399
tp2400
Rp2401
ag2401
ag2401
ag2401
ag2401
ag2401
ag1
(g5
S'\xa0,+\x89\t\xe3\x1e@'
p2402
tp2403
Rp2404
ag2404
ag1
(g5
S'\x11\x1d\x14=PM&@'
p2405
tp2406
Rp2407
ag2407
ag2407
ag2407
ag2407
ag2407
ag1
(g5
S'\xdb\xebF\xd4\xc9T0@'
p2408
tp2409
Rp2410
ag1
(g5
S'&\xec!\xc0\x88P\x1e@'
p2411
tp2412
Rp2413
ag2413
ag2413
ag2413
ag2413
ag2413
ag2413
ag2413
ag2413
ag2413
ag2413
ag2413
ag2413
ag2413
ag2413
ag1
(g5
S'\xd8\xfci\xecl\xd5\x18@'
p2414
tp2415
Rp2416
ag2416
ag2416
ag2416
ag2416
ag2416
ag2416
ag2416
ag2416
ag2416
ag2416
ag2416
ag2416
ag2416
ag1
(g5
S'\xaf.\xd7\xd1J\x80%@'
p2417
tp2418
Rp2419
ag1
(g5
S'z/\x96\xf5=l\x16@'
p2420
tp2421
Rp2422
ag2422
ag2422
ag1
(g5
S'Jg@q\xc4y.@'
p2423
tp2424
Rp2425
ag1
(g5
S'\xe8\x91\x18d\x90\xc1&@'
p2426
tp2427
Rp2428
ag1
(g5
S'EN\x13k\x1e\xcb$@'
p2429
tp2430
Rp2431
ag2431
ag1
(g5
S"\x95\x08jLjI'@"
p2432
tp2433
Rp2434
ag2434
ag2434
ag1
(g5
S'H\x9e\xd4\xcd\x8a\xd9&@'
p2435
tp2436
Rp2437
ag2437
ag2437
ag2437
ag2437
ag2437
ag2437
ag2437
ag1
(g5
S'\xe8Y\x15w\xa5\xd8%@'
p2438
tp2439
Rp2440
ag2440
ag2440
ag1
(g5
S'\x19\r\xe6k\xc9\x8a.@'
p2441
tp2442
Rp2443
ag1
(g5
S'\xff(p\x1c\xfc\xec/@'
p2444
tp2445
Rp2446
ag1
(g5
S'w\xb2\x82[\xd7\xd90@'
p2447
tp2448
Rp2449
ag1
(g5
S'\x19BE\xc5z\x034@'
p2450
tp2451
Rp2452
ag1
(g5
S'\xf4\xed\xe1\xf1\x8ae2@'
p2453
tp2454
Rp2455
ag1
(g5
S'j):X\x15\x956@'
p2456
tp2457
Rp2458
ag1
(g5
S'\x06F\xc06M>+@'
p2459
tp2460
Rp2461
ag1
(g5
S'\x12r\\\xc2\xcab,@'
p2462
tp2463
Rp2464
ag1
(g5
S'\xccB2z\xb7\xaa\x1d@'
p2465
tp2466
Rp2467
ag2467
ag2467
ag2467
ag2467
ag2467
ag2467
ag1
(g5
S'\x80\x92\x88\xa6n\xaa @'
p2468
tp2469
Rp2470
ag2470
ag2470
ag2470
ag2470
ag1
(g5
S'\x82\xf2\xf5j4\xb4+@'
p2471
tp2472
Rp2473
ag2473
ag1
(g5
S'@\x8a\x8f\x9b\x0b\x11,@'
p2474
tp2475
Rp2476
ag1
(g5
S"\x87]\x80\xe8k\xd7'@"
p2477
tp2478
Rp2479
ag1
(g5
S'z\xa3#G\xbd~%@'
p2480
tp2481
Rp2482
ag2482
ag2482
ag1
(g5
S'\x14\xcd9\xb2D!&@'
p2483
tp2484
Rp2485
ag2485
ag2485
ag2485
ag2485
ag2485
ag1
(g5
S'3\x998\xe4\xd0\xcc%@'
p2486
tp2487
Rp2488
ag2488
ag2488
ag2488
ag2488
ag1
(g5
S"\xb1n\xab\x01\x02/'@"
p2489
tp2490
Rp2491
ag2491
ag2491
ag2491
ag2491
ag2491
ag2491
ag1
(g5
S'A\x1f\x94\x05$\xa8$@'
p2492
tp2493
Rp2494
ag1
(g5
S'L\xb8;f\xa5\x1d#@'
p2495
tp2496
Rp2497
ag2497
ag2497
ag2497
ag2497
ag2497
ag2497
ag2497
ag1
(g5
S'G\xaf\xb0\x03 \xed&@'
p2498
tp2499
Rp2500
ag2500
ag2500
ag1
(g5
S'\x02\xb2\xc0\x84\xacW.@'
p2501
tp2502
Rp2503
ag2503
ag1
(g5
S'\x99\xe6\xbe\x8e\x8b\xc9$@'
p2504
tp2505
Rp2506
ag2506
ag2506
ag1
(g5
S'\xe6V\xa2\xd23M3@'
p2507
tp2508
Rp2509
ag1
(g5
S':\xdc\x8e\xff\x06\x88,@'
p2510
tp2511
Rp2512
ag1
(g5
S'\xac@\x05n\xc29#@'
p2513
tp2514
Rp2515
ag2515
ag2515
ag2515
ag2515
ag2515
ag2515
ag2515
ag2515
ag2515
ag2515
ag2515
ag2515
ag2515
ag2515
ag2515
ag2515
ag2515
ag1
(g5
S"_\xd7$\xdbrh'@"
p2516
tp2517
Rp2518
ag2518
ag2518
ag2518
ag1
(g5
S'\x12\x90Q\xf9f\xc0&@'
p2519
tp2520
Rp2521
ag2521
ag1
(g5
S'E\xf1\xa2\x94\x86\xa4)@'
p2522
tp2523
Rp2524
ag1
(g5
S'LJ\xd7\xaf(\xba"@'
p2525
tp2526
Rp2527
ag1
(g5
S'\xabNi.\x7f\xeb%@'
p2528
tp2529
Rp2530
ag2530
ag2530
ag2530
ag2530
ag2530
ag2530
ag2530
ag2530
ag2530
ag2530
ag2530
ag2530
ag2530
ag1
(g5
S'<\xe5\xd1\x13\xde\xaa/@'
p2531
tp2532
Rp2533
ag1
(g5
S'\x84\xb5\xb2(\xfa\x00-@'
p2534
tp2535
Rp2536
ag2536
ag2536
ag1
(g5
S'\xd8\xd8\xa9\xa4\x1d\xc3*@'
p2537
tp2538
Rp2539
ag2539
ag2539
ag1
(g5
S'\x8e\x0e\x86t\xa9J(@'
p2540
tp2541
Rp2542
ag2542
ag2542
ag2542
ag2542
ag1
(g5
S'\x7f\x8eY0T\xaf&@'
p2543
tp2544
Rp2545
ag2545
ag2545
ag2545
ag2545
ag2545
ag2545
ag2545
ag2545
ag1
(g5
S'\x1ar\xba\xa1j\x91.@'
p2546
tp2547
Rp2548
ag2548
ag1
(g5
S'\xcf\x046\xb1H@(@'
p2549
tp2550
Rp2551
ag2551
ag2551
ag1
(g5
S'\x98:\x98\xb7\t:.@'
p2552
tp2553
Rp2554
ag1
(g5
S'\xa5\xe5\x1c-g\x16+@'
p2555
tp2556
Rp2557
ag2557
ag1
(g5
S'L\r\xed\x8few+@'
p2558
tp2559
Rp2560
ag1
(g5
S'\xe5\x98}q\x91\xac0@'
p2561
tp2562
Rp2563
ag2563
ag2563
ag2563
ag2563
ag2563
ag2563
ag2563
ag1
(g5
S'l$,\x8b\xa8\x8d0@'
p2564
tp2565
Rp2566
ag2566
ag1
(g5
S'\xec\xb0\xfbH\x08\xe22@'
p2567
tp2568
Rp2569
ag2569
ag2569
ag2569
ag1
(g5
S'\xd8\x89,\xea\x0c)+@'
p2570
tp2571
Rp2572
ag1
(g5
S'\xb6\nI\\\xfb\xbe)@'
p2573
tp2574
Rp2575
ag2575
ag1
(g5
S'\x8d\x12\x917\xf9\x7f/@'
p2576
tp2577
Rp2578
ag2578
ag2578
ag1
(g5
S'\xce\xe0pb\xd2\xaa"@'
p2579
tp2580
Rp2581
ag1
(g5
S'\xdb\x18R\xd6\x8c\xa2%@'
p2582
tp2583
Rp2584
ag2584
ag2584
ag2584
ag2584
ag2584
ag2584
ag1
(g5
S'pk\x90t\xc6}&@'
p2585
tp2586
Rp2587
ag2587
ag2587
ag2587
ag2587
ag1
(g5
S'[ \xec\x04\xde\x02#@'
p2588
tp2589
Rp2590
ag2590
ag2590
ag2590
ag2590
ag1
(g5
S"\xb1=Z\xd0&v'@"
p2591
tp2592
Rp2593
ag2593
ag2593
ag1
(g5
S"_P\x9b\xae!\x0b'@"
p2594
tp2595
Rp2596
ag2596
ag2596
ag1
(g5
S'\xa1A|\xee\xa3\xf0)@'
p2597
tp2598
Rp2599
ag2599
ag2599
ag2599
ag2599
ag2599
ag2599
ag1
(g5
S'\xa6\xcf\xb6w\xfd\x92"@'
p2600
tp2601
Rp2602
ag2602
ag2602
ag2602
ag1
(g5
S'\xa9}e1!\xad"@'
p2603
tp2604
Rp2605
ag2605
ag2605
ag2605
ag2605
ag2605
ag2605
ag2605
ag2605
ag2605
ag2605
ag2605
ag2605
ag2605
ag1
(g5
S'\xcf\x03\xbdv\xfb\xa0"@'
p2606
tp2607
Rp2608
ag2608
ag2608
ag2608
ag2608
ag2608
ag2608
ag2608
ag2608
ag2608
ag2608
ag2608
ag1
(g5
S'\x82\xd2?\x04]\x19\x1e@'
p2609
tp2610
Rp2611
ag2611
ag2611
ag2611
ag2611
ag1
(g5
S'\x9e"\x89K\xc1E$@'
p2612
tp2613
Rp2614
ag2614
ag2614
ag1
(g5
S"h\xde\xeb\xab\x9c\x0e'@"
p2615
tp2616
Rp2617
ag2617
ag1
(g5
S'oI\x10\xfc>#-@'
p2618
tp2619
Rp2620
ag1
(g5
S'\xae\x91x\xfa\xdfV @'
p2621
tp2622
Rp2623
ag2623
ag2623
ag2623
ag1
(g5
S'"\xdfP\xee\xfb\x04\x1f@'
p2624
tp2625
Rp2626
ag2626
ag2626
ag2626
ag2626
ag2626
ag2626
ag2626
ag1
(g5
S'\x1e\xd7&\xdcpm\x1a@'
p2627
tp2628
Rp2629
ag2629
ag2629
ag2629
ag2629
ag2629
ag2629
ag2629
ag2629
ag2629
ag2629
ag2629
ag2629
ag2629
ag2629
ag2629
ag2629
ag2629
ag2629
ag2629
ag2629
ag2629
ag2629
ag2629
ag2629
ag2629
ag2629
ag1
(g5
S'\x14\x16\xb6\xe47\x7f\x18@'
p2630
tp2631
Rp2632
ag2632
ag2632
ag2632
ag2632
ag1
(g5
S'^1"=\x16\x11 @'
p2633
tp2634
Rp2635
ag2635
ag2635
ag2635
ag2635
ag2635
ag2635
ag2635
ag2635
ag2635
ag2635
ag2635
ag2635
ag2635
ag2635
ag1
(g5
S'\x0eS\xb0{\xd1\xb2%@'
p2636
tp2637
Rp2638
ag2638
ag2638
ag1
(g5
S"\xde\xd1_\x0c\xb7E'@"
p2639
tp2640
Rp2641
ag2641
ag2641
ag2641
ag2641
ag2641
ag2641
ag2641
ag2641
ag2641
ag2641
ag2641
ag1
(g5
S'v\x07\xf8\xba=\x1f1@'
p2642
tp2643
Rp2644
ag2644
ag1
(g5
S'|g\xc6\x10\xdfm%@'
p2645
tp2646
Rp2647
ag1
(g5
S'r\xee\x1eK.\x03)@'
p2648
tp2649
Rp2650
ag1
(g5
S'\xf7\x04\n\x1d\xfaq)@'
p2651
tp2652
Rp2653
ag1
(g5
S"W\x11\x95)\xde\x9c'@"
p2654
tp2655
Rp2656
ag2656
ag2656
ag1
(g5
S'X\xacv\x85\x1e\xe8$@'
p2657
tp2658
Rp2659
ag2659
ag2659
ag2659
ag2659
ag2659
ag2659
ag1
(g5
S'\xf0\xeb\xfe^\x17C\x1d@'
p2660
tp2661
Rp2662
ag1
(g5
S'\xba\xb9\x05\xb4\x95\xb9\x16@'
p2663
tp2664
Rp2665
ag2665
ag2665
ag2665
ag2665
ag2665
ag2665
ag2665
ag2665
ag2665
ag2665
ag2665
ag2665
ag2665
ag2665
ag2665
ag2665
ag2665
ag2665
ag2665
ag2665
ag2665
ag2665
ag2665
ag2665
ag2665
ag2665
ag2665
ag2665
ag1
(g5
S'}\xa7\x90~{\xce\x17@'
p2666
tp2667
Rp2668
ag2668
ag2668
ag2668
ag2668
ag1
(g5
S'\x8f\xc3\xdd\xe8\xdb\x11\x19@'
p2669
tp2670
Rp2671
ag2671
ag2671
ag2671
ag2671
ag2671
ag2671
ag2671
ag2671
ag2671
ag2671
ag2671
ag2671
ag2671
ag2671
ag2671
ag2671
ag2671
ag1
(g5
S'\xf8\x8b[8\xdf\xbc\x15@'
p2672
tp2673
Rp2674
ag2674
ag2674
ag2674
ag2674
ag2674
ag2674
ag2674
ag2674
ag2674
ag2674
ag2674
ag2674
ag2674
ag2674
ag2674
ag2674
ag2674
ag2674
ag2674
ag2674
ag2674
ag2674
ag2674
ag2674
ag2674
ag2674
ag2674
ag2674
ag2674
ag2674
ag2674
ag2674
ag2674
ag2674
ag2674
ag2674
ag2674
ag2674
ag2674
ag2674
ag1
(g5
S'\xb08%&\xfe\x87"@'
p2675
tp2676
Rp2677
ag2677
ag2677
ag2677
ag2677
ag2677
ag2677
ag2677
ag2677
ag1
(g5
S'f\x81\x82\xbe\xc8\x0b!@'
p2678
tp2679
Rp2680
ag2680
ag1
(g5
S'[\xc8C\xe7[\xda(@'
p2681
tp2682
Rp2683
ag2683
ag2683
ag2683
ag2683
ag1
(g5
S"\x05D\xb3\xefB/'@"
p2684
tp2685
Rp2686
ag2686
ag2686
ag2686
ag2686
ag2686
ag1
(g5
S'\x9c\xb9\x91\xc7X\xe2%@'
p2687
tp2688
Rp2689
ag1
(g5
S'\x1e`\x85\x96\x84E"@'
p2690
tp2691
Rp2692
ag2692
ag2692
ag2692
ag2692
ag1
(g5
S'EC\x15$\xc8\x94\x19@'
p2693
tp2694
Rp2695
ag2695
ag2695
ag2695
ag2695
ag2695
ag2695
ag2695
ag2695
ag2695
ag2695
ag2695
ag2695
ag1
(g5
S'\xae\xe8\xc098\x1d\x1e@'
p2696
tp2697
Rp2698
ag2698
ag2698
ag2698
ag2698
ag2698
ag2698
ag2698
ag2698
ag2698
ag2698
ag2698
ag1
(g5
S'\xc3\xccd\x9d\x0b\xfb\x1b@'
p2699
tp2700
Rp2701
ag2701
ag2701
ag2701
ag1
(g5
S'\x1bN[\xd9\xe2\x06 @'
p2702
tp2703
Rp2704
ag2704
ag2704
ag2704
ag2704
ag2704
ag2704
ag2704
ag2704
ag2704
ag1
(g5
S'\x9f\xe4S^\x80\xeb#@'
p2705
tp2706
Rp2707
ag2707
ag2707
ag2707
ag1
(g5
S'\xa5\x18\xd3\xd5L\xc5 @'
p2708
tp2709
Rp2710
ag2710
ag2710
ag2710
ag2710
ag1
(g5
S'\x93\x94\xe8\x0c0\x8a!@'
p2711
tp2712
Rp2713
ag2713
ag2713
ag2713
ag1
(g5
S'\x86\xd5 K6\x1b!@'
p2714
tp2715
Rp2716
ag1
(g5
S'jh=\xd1@\xef)@'
p2717
tp2718
Rp2719
ag2719
ag2719
ag2719
ag1
(g5
S'\xfb\xc7\x1d\x7f\xa3s)@'
p2720
tp2721
Rp2722
ag2722
ag2722
ag2722
ag2722
ag2722
ag2722
ag2722
ag2722
ag2722
ag2722
ag1
(g5
S'\x02\xef\xb1\x7f2,\x16@'
p2723
tp2724
Rp2725
ag2725
ag2725
ag2725
ag2725
ag2725
ag2725
ag2725
ag2725
ag2725
ag1
(g5
S'\xb1\xe2\x07\x89\x07\x9e\x17@'
p2726
tp2727
Rp2728
ag2728
ag2728
ag2728
ag2728
ag2728
ag2728
ag2728
ag2728
ag2728
ag2728
ag2728
ag2728
ag1
(g5
S'(\xebN/R\x02\x18@'
p2729
tp2730
Rp2731
ag2731
ag2731
ag2731
ag2731
ag2731
ag2731
ag1
(g5
S'\xa7\x8b\xa6\x8b\xac\xe8 @'
p2732
tp2733
Rp2734
ag2734
ag2734
ag2734
ag2734
ag2734
ag2734
ag2734
ag2734
ag2734
ag2734
ag2734
ag2734
ag2734
ag1
(g5
S'\x9b\xf7\xd6\xddx($@'
p2735
tp2736
Rp2737
ag1
(g5
S'8\x05\r\x0b\xab\xcf @'
p2738
tp2739
Rp2740
ag1
(g5
S'\xdeE\x87E&\xed\x1e@'
p2741
tp2742
Rp2743
ag1
(g5
S'\x05\xe5\x04.\xdcZ\x1e@'
p2744
tp2745
Rp2746
ag2746
ag2746
ag2746
ag2746
ag2746
ag2746
ag2746
ag2746
ag2746
ag2746
ag2746
ag1
(g5
S'\xa6p\xb2%wm\x18@'
p2747
tp2748
Rp2749
ag2749
ag2749
ag2749
ag2749
ag2749
ag2749
ag2749
ag1
(g5
S'\x83\x92\xa0\xbf:\x8b\x1b@'
p2750
tp2751
Rp2752
ag2752
ag2752
ag2752
ag2752
ag2752
ag2752
ag2752
ag2752
ag2752
ag2752
ag2752
ag1
(g5
S'\xe7@\x8c\xb8#Q\x18@'
p2753
tp2754
Rp2755
ag2755
ag2755
ag2755
ag2755
ag2755
ag2755
ag2755
ag2755
ag1
(g5
S':\xf2\x98@\xf2/\x16@'
p2756
tp2757
Rp2758
ag2758
ag2758
ag2758
ag2758
ag1
(g5
S'\r\xbe\x04\x07dD\x18@'
p2759
tp2760
Rp2761
ag2761
ag2761
ag2761
ag2761
ag2761
ag1
(g5
S'\x92\xaa0,@\x1f\x16@'
p2762
tp2763
Rp2764
ag2764
ag2764
ag2764
ag2764
ag2764
ag2764
ag2764
ag1
(g5
S'\xbc\xdf\xfe\xa6s0"@'
p2765
tp2766
Rp2767
ag2767
ag2767
ag2767
ag1
(g5
S'}B\x15\x1f\x91\xee%@'
p2768
tp2769
Rp2770
ag2770
ag2770
ag2770
ag1
(g5
S'\xe8(\xb6~\x85\x1b(@'
p2771
tp2772
Rp2773
ag1
(g5
S'\x1e\xf6Th_i\x1c@'
p2774
tp2775
Rp2776
ag2776
ag1
(g5
S'vw\xb6\xac\xdf\xc0\x16@'
p2777
tp2778
Rp2779
ag2779
ag2779
ag2779
ag2779
ag2779
ag2779
ag2779
ag2779
ag2779
ag2779
ag2779
ag2779
ag2779
ag2779
ag2779
ag2779
ag2779
ag2779
ag2779
ag2779
ag2779
ag2779
ag2779
ag2779
ag2779
ag2779
ag2779
ag2779
ag2779
ag2779
ag2779
ag2779
ag2779
ag2779
ag2779
ag2779
ag2779
ag2779
ag2779
ag2779
ag2779
ag2779
ag2779
ag2779
ag2779
ag2779
ag2779
ag2779
ag2779
ag2779
ag2779
ag2779
ag2779
ag2779
ag2779
ag2779
ag2779
ag1
(g5
S'\xde\x8c\xe2\x82uV\x1a@'
p2780
tp2781
Rp2782
ag1
(g5
S'\x9eA:6\t\xc0\x1f@'
p2783
tp2784
Rp2785
ag2785
ag2785
ag2785
ag2785
ag2785
ag2785
ag1
(g5
S'8\xd6\x86&\xb3\xb9%@'
p2786
tp2787
Rp2788
ag2788
ag2788
ag2788
ag2788
ag1
(g5
S'O\x9f$\x86\x98\xf2\x16@'
p2789
tp2790
Rp2791
ag2791
ag2791
ag2791
ag2791
ag2791
ag2791
ag2791
ag2791
ag2791
ag2791
ag2791
ag2791
ag1
(g5
S'\x88N\x01g\xf8\xbf\x18@'
p2792
tp2793
Rp2794
ag1
(g5
S'\x1f\\f\x08h\x7f\x1e@'
p2795
tp2796
Rp2797
ag2797
ag2797
ag2797
ag2797
ag2797
ag2797
ag2797
ag2797
ag2797
ag2797
ag2797
ag2797
ag2797
ag2797
ag1
(g5
S'\xe6z\x99\xc0\rm @'
p2798
tp2799
Rp2800
ag2800
ag2800
ag2800
ag2800
ag2800
ag2800
ag2800
ag2800
ag2800
ag2800
ag2800
ag1
(g5
S'\x9b\x8a\xf2@\xaff\x1b@'
p2801
tp2802
Rp2803
ag2803
ag2803
ag2803
ag2803
ag2803
ag2803
ag2803
ag2803
ag2803
ag2803
ag2803
ag2803
ag2803
ag2803
ag2803
ag2803
ag1
(g5
S'C\xc6\xab\x8a@\x12\x1a@'
p2804
tp2805
Rp2806
ag2806
ag1
(g5
S'\x7f\x89\x08\x83\xc7~\x1e@'
p2807
tp2808
Rp2809
ag1
(g5
S'\xe8\xa8p\xb4W\x06\x18@'
p2810
tp2811
Rp2812
ag2812
ag2812
ag2812
ag2812
ag1
(g5
S'\xa0\x83\x80] \xd6\x19@'
p2813
tp2814
Rp2815
ag2815
ag2815
ag2815
ag2815
ag2815
ag2815
ag2815
ag1
(g5
S'\xa9\x06\x00\xbf\xe1\x0b\x1b@'
p2816
tp2817
Rp2818
ag2818
ag2818
ag2818
ag2818
ag2818
ag2818
ag2818
ag2818
ag2818
ag2818
ag2818
ag2818
ag2818
ag2818
ag2818
ag2818
ag2818
ag2818
ag2818
ag2818
ag2818
ag2818
ag2818
ag2818
ag2818
ag2818
ag2818
ag2818
ag1
(g5
S'\xc8\xef\x00\xa5MN\x16@'
p2819
tp2820
Rp2821
ag2821
ag1
(g5
S'&\x82\xc7\xc4\xca\xda\x15@'
p2822
tp2823
Rp2824
ag2824
ag2824
ag2824
ag2824
ag1
(g5
S'_\x8b\x8a\xb4\xda\xca\x1b@'
p2825
tp2826
Rp2827
ag2827
ag2827
ag2827
ag2827
ag2827
ag2827
ag2827
ag2827
ag2827
ag2827
ag2827
ag2827
ag2827
ag2827
ag2827
ag2827
ag2827
ag2827
ag2827
ag1
(g5
S'\x00cRnj\xcc\x1d@'
p2828
tp2829
Rp2830
ag2830
ag2830
ag2830
ag2830
ag2830
ag2830
ag2830
ag2830
ag2830
ag2830
ag2830
ag2830
ag2830
ag2830
ag2830
ag2830
ag2830
ag2830
ag2830
ag2830
ag2830
ag2830
ag2830
ag2830
ag2830
ag2830
ag2830
ag2830
ag2830
ag2830
ag2830
ag2830
ag2830
ag2830
ag2830
ag2830
ag1
(g5
S'\x08/-\x04T\xa0\x1c@'
p2831
tp2832
Rp2833
ag2833
ag2833
ag2833
ag2833
ag2833
ag2833
ag2833
ag2833
ag2833
ag2833
ag2833
ag2833
ag2833
ag1
(g5
S'<\x82PN\x80x\x12@'
p2834
tp2835
Rp2836
ag2836
ag2836
ag2836
ag2836
ag2836
ag2836
ag2836
ag2836
ag2836
ag2836
ag2836
ag2836
ag2836
ag1
(g5
S'\x03;\x13l\xdb+\x0e@'
p2837
tp2838
Rp2839
ag2839
ag2839
ag2839
ag2839
ag2839
ag2839
ag2839
ag1
(g5
S'\xech\t\x8e;\x0b\x13@'
p2840
tp2841
Rp2842
ag2842
ag2842
ag2842
ag2842
ag2842
ag2842
ag2842
ag2842
ag2842
ag2842
ag2842
ag2842
ag2842
ag2842
ag2842
ag2842
ag2842
ag2842
ag2842
ag2842
ag2842
ag2842
ag2842
ag2842
ag2842
ag1
(g5
S'y\xda\x94p\xb8\xdc\x17@'
p2843
tp2844
Rp2845
ag2845
ag2845
ag2845
ag2845
ag1
(g5
S'\xc6\x19\xbd\x8e\x85H\x12@'
p2846
tp2847
Rp2848
ag2848
ag2848
ag2848
ag1
(g5
S'\xf9\xa7\x0e\x140\xeb\x1c@'
p2849
tp2850
Rp2851
ag1
(g5
S'\xee\xbas\x0fp\xdb\x15@'
p2852
tp2853
Rp2854
ag2854
ag2854
ag2854
ag2854
ag2854
ag2854
ag1
(g5
S"\xa5\x00\xa3P'\x9b\x13@"
p2855
tp2856
Rp2857
ag2857
ag2857
ag2857
ag2857
ag2857
ag2857
ag2857
ag2857
ag2857
ag2857
ag2857
ag2857
ag2857
ag2857
ag2857
ag2857
ag2857
ag2857
ag2857
ag2857
ag2857
ag2857
ag2857
ag2857
ag2857
ag2857
ag2857
ag2857
ag2857
ag2857
ag2857
ag2857
ag1
(g5
S')\xee,\xf2v;\x1a@'
p2858
tp2859
Rp2860
ag2860
ag2860
ag2860
ag2860
ag2860
ag1
(g5
S')2\xc6\xc1\xe4\xce\x14@'
p2861
tp2862
Rp2863
ag2863
ag2863
ag2863
ag2863
ag1
(g5
S'Z.c0\xf6\xc8\x14@'
p2864
tp2865
Rp2866
ag2866
ag2866
ag2866
ag2866
ag2866
ag2866
ag2866
ag2866
ag2866
ag2866
ag2866
ag2866
ag2866
ag1
(g5
S'\xac\xd2:\xd78H\x16@'
p2867
tp2868
Rp2869
ag2869
ag2869
ag2869
ag2869
ag2869
ag2869
ag2869
ag2869
ag2869
ag1
(g5
S'(Rv\x06\xfc\xf3\x1c@'
p2870
tp2871
Rp2872
ag2872
ag2872
ag2872
ag1
(g5
S'p\x8d\x0eH\xd3F\x1c@'
p2873
tp2874
Rp2875
ag2875
ag2875
ag2875
ag2875
ag2875
ag2875
ag2875
ag2875
ag1
(g5
S'\t\xd9E\x98\xea4!@'
p2876
tp2877
Rp2878
ag2878
ag2878
ag2878
ag2878
ag2878
ag2878
ag1
(g5
S'\xdb\xfb\r\xb6\r(!@'
p2879
tp2880
Rp2881
ag2881
ag2881
ag2881
ag2881
ag2881
ag2881
ag2881
ag2881
ag2881
ag2881
ag2881
ag1
(g5
S'=\xeaR\x06\x156*@'
p2882
tp2883
Rp2884
ag1
(g5
S'D!\xac\x85\x17\r\x1f@'
p2885
tp2886
Rp2887
ag2887
ag2887
ag2887
ag2887
ag1
(g5
S'\xc1\xb1\xf5\x04\x16>\x1b@'
p2888
tp2889
Rp2890
ag2890
ag2890
ag2890
ag2890
ag2890
ag2890
ag1
(g5
S'\x94\x1a\xed\x86i{\x1c@'
p2891
tp2892
Rp2893
ag2893
ag2893
ag1
(g5
S'H\xad\xffS,e\x1c@'
p2894
tp2895
Rp2896
ag2896
ag2896
ag2896
ag1
(g5
S'\x86gc\xbcJ\xc8\x11@'
p2897
tp2898
Rp2899
ag2899
ag2899
ag2899
ag2899
ag2899
ag2899
ag2899
ag2899
ag1
(g5
S'9\xbf\x99\x96\xd9\xe9\x0f@'
p2900
tp2901
Rp2902
ag2902
ag2902
ag2902
ag2902
ag2902
ag2902
ag2902
ag2902
ag2902
ag2902
ag2902
ag2902
ag2902
ag2902
ag2902
ag1
(g5
S'\xa08.u\xd5\xa1\x10@'
p2903
tp2904
Rp2905
ag2905
ag2905
ag2905
ag2905
ag2905
ag2905
ag2905
ag2905
ag2905
ag2905
ag2905
ag2905
ag2905
ag2905
ag2905
ag1
(g5
S'\xb0\x8e\x91+\xbb\xef\x19@'
p2906
tp2907
Rp2908
ag2908
ag2908
ag1
(g5
S'\xec\xc9\x8e\xe3\x07=\x12@'
p2909
tp2910
Rp2911
ag2911
ag2911
ag2911
ag2911
ag2911
ag2911
ag2911
ag2911
ag2911
ag2911
ag2911
ag2911
ag2911
ag2911
ag2911
ag2911
ag2911
ag2911
ag2911
ag2911
ag2911
ag1
(g5
S')\xfc4\xfc\xea\t\x12@'
p2912
tp2913
Rp2914
ag1
(g5
S'\xf9`rs=\xc9!@'
p2915
tp2916
Rp2917
ag2917
ag2917
ag2917
ag1
(g5
S'Mh91l\xfe"@'
p2918
tp2919
Rp2920
ag2920
ag1
(g5
S'\x96\xe2\xb8\x11\x0e*"@'
p2921
tp2922
Rp2923
ag2923
ag2923
ag2923
ag2923
ag2923
ag2923
ag2923
ag2923
ag2923
ag2923
ag1
(g5
S"\x91?\x97\xe5T\x02'@"
p2924
tp2925
Rp2926
ag2926
ag2926
ag2926
ag2926
ag2926
ag2926
ag2926
ag1
(g5
S'\x1c\x99\xc8\xf0\xc8\x91!@'
p2927
tp2928
Rp2929
ag2929
ag2929
ag1
(g5
S'\x19\xca\x80\x88\xdf\xaf!@'
p2930
tp2931
Rp2932
ag2932
ag2932
ag2932
ag2932
ag2932
ag2932
ag2932
ag1
(g5
S'\x80\x9fza\x8f\x15 @'
p2933
tp2934
Rp2935
ag2935
ag1
(g5
S'd\x8d\xe7\xa4\x85\xcf!@'
p2936
tp2937
Rp2938
ag2938
ag2938
ag1
(g5
S'\xf1\xc7S]6\xa1\x18@'
p2939
tp2940
Rp2941
ag1
(g5
S'\x10\x1d#\xc7\x108\x1e@'
p2942
tp2943
Rp2944
ag2944
ag2944
ag2944
ag2944
ag2944
ag2944
ag2944
ag2944
ag2944
ag2944
ag2944
ag2944
ag1
(g5
S'\xc3,\x88:\x93P"@'
p2945
tp2946
Rp2947
ag2947
ag2947
ag1
(g5
S'\xd3\xa4\x91\xc0\xa6\xcb @'
p2948
tp2949
Rp2950
ag2950
ag2950
ag2950
ag1
(g5
S'K\x13w_\xbe4\x15@'
p2951
tp2952
Rp2953
ag2953
ag1
(g5
S'\xa2\x85\xc8\x0c<\xee"@'
p2954
tp2955
Rp2956
ag2956
ag2956
ag2956
ag2956
ag2956
ag2956
ag2956
ag2956
ag1
(g5
S'\xf7\xf5\xff\x1a=\xde\x13@'
p2957
tp2958
Rp2959
ag2959
ag2959
ag2959
ag2959
ag2959
ag2959
ag2959
ag2959
ag2959
ag2959
ag2959
ag2959
ag2959
ag2959
ag2959
ag2959
ag2959
ag2959
ag2959
ag2959
ag2959
ag1
(g5
S'\x1a\x1d\xaf\xa6{\x7f\x13@'
p2960
tp2961
Rp2962
ag2962
ag2962
ag2962
ag2962
ag2962
ag2962
ag2962
ag2962
ag2962
ag2962
ag2962
ag2962
ag2962
ag2962
ag2962
ag2962
ag2962
ag1
(g5
S'"\xf2D\x04\x04\x02\x1e@'
p2963
tp2964
Rp2965
ag2965
ag2965
ag2965
ag1
(g5
S'\xb2.\xccl\xdd\xe9\x18@'
p2966
tp2967
Rp2968
ag2968
ag1
(g5
S'\xb6\x99w\xc2\xa1\x82\x14@'
p2969
tp2970
Rp2971
ag2971
ag2971
ag2971
ag2971
ag2971
ag2971
ag2971
ag2971
ag2971
ag2971
ag2971
ag2971
ag2971
ag1
(g5
S'\xcdT\x8f\xb8\xc3\x9c\x13@'
p2972
tp2973
Rp2974
ag1
(g5
S'\xdf\xf5\xbdfP\xfa\x10@'
p2975
tp2976
Rp2977
ag2977
ag2977
ag2977
ag2977
ag2977
ag2977
ag2977
ag2977
ag2977
ag2977
ag1
(g5
S'\x9b]\xc1\x94e\x18\r@'
p2978
tp2979
Rp2980
ag2980
ag2980
ag2980
ag2980
ag2980
ag2980
ag2980
ag2980
ag1
(g5
S'\x15\xab\x92\x83"\xf0\x1e@'
p2981
tp2982
Rp2983
ag2983
ag2983
ag2983
ag2983
ag2983
ag2983
ag2983
ag2983
ag2983
ag2983
ag2983
ag2983
ag2983
ag2983
ag2983
ag2983
ag2983
ag2983
ag2983
a.