(lp0
(lp1
F-1.9526325937344389
acnumpy.core.multiarray
scalar
p2
(cnumpy
dtype
p3
(S'f8'
p4
I0
I1
tp5
Rp6
(I3
S'<'
p7
NNNI-1
I-1
I0
tp8
bS'\xe4\xa4\xca\x1erR\xb9?'
p9
tp10
Rp11
aa(lp12
F-2.005174819215027
ag2
(g6
S'\x85\xd7\xb5?E\xae\xb9?'
p13
tp14
Rp15
aa(lp16
F-1.95115821873357
ag2
(g6
S'\xd5\x97,zf\xd5\xb9?'
p17
tp18
Rp19
aa(lp20
F-2.010372876843093
ag2
(g6
S'VR\xc98\xb4\x1f\xba?'
p21
tp22
Rp23
aa(lp24
F-2.0018500042098455
ag2
(g6
S'\x1d\x03P0D\xeb\xb9?'
p25
tp26
Rp27
aa(lp28
F-1.9281507260796695
ag2
(g6
S'+t\xbb\x88\xcf\xa4\xb9?'
p29
tp30
Rp31
aa(lp32
F-1.9282801513796757
ag2
(g6
S'\xb2S\xe7/sv\xb9?'
p33
tp34
Rp35
aa(lp36
F-1.8543724567924458
ag2
(g6
S'y%\x00\x1f^e\xb9?'
p37
tp38
Rp39
aa(lp40
F-1.9473024369353154
ag2
(g6
S'Q\x93\xf7I*\xe1\xb9?'
p41
tp42
Rp43
aa(lp44
F-1.9898603279374754
ag2
(g6
S'4b\x97\x1at\xe3\xb9?'
p45
tp46
Rp47
aa(lp48
F-1.9454462128982526
ag2
(g6
S'\x1er\xc10z\t\xba?'
p49
tp50
Rp51
aa(lp52
F-1.980412805754176
ag2
(g6
S'C\xcd\xe6\x15.\x08\xba?'
p53
tp54
Rp55
aa(lp56
F-1.9947265083282748
ag2
(g6
S'\xcd\xe7\xd69<H\xba?'
p57
tp58
Rp59
aa(lp60
F-1.9915940625010726
ag2
(g6
S'\x1d#\x8c\xe2}\x80\xba?'
p61
tp62
Rp63
aa(lp64
F-1.9810344953244878
ag2
(g6
S'\x88\xcd\x00:Z\xaf\xba?'
p65
tp66
Rp67
aa(lp68
F-2.0051635075145366
ag2
(g6
S'\xe5\x07\xf9\xea\xc2\x96\xba?'
p69
tp70
Rp71
aa(lp72
F-1.9970892272059124
ag2
(g6
S'E\x8d.\x1c\xa2\xb2\xba?'
p73
tp74
Rp75
aa(lp76
F-1.8968677896122896
ag2
(g6
S'\x1a`\xc7e\x89z\xba?'
p77
tp78
Rp79
aa(lp80
F-1.8684848832553647
ag2
(g6
S'S\n\xe9\x94J\xce\xba?'
p81
tp82
Rp83
aa(lp84
F-1.864149565236508
ag2
(g6
S'n\x83\xdeY\xaf\xb0\xba?'
p85
tp86
Rp87
aa(lp88
F-1.9574874359952652
ag2
(g6
S'i\x16\xe0\x9f\xe1O\xba?'
p89
tp90
Rp91
aa(lp92
F-1.958729562495251
ag2
(g6
S'm\xcdS\x95i-\xba?'
p93
tp94
Rp95
aa(lp96
F-2.013645754704985
ag2
(g6
S'U5\x82Y\x1e8\xba?'
p97
tp98
Rp99
aa(lp100
F-1.9399142112008259
ag2
(g6
S'\xc2\x97T\x8aj\xaa\xb9?'
p101
tp102
Rp103
aa(lp104
F-1.9127436147206789
ag2
(g6
S'2{\x14\x84\xfa\xa1\xb9?'
p105
tp106
Rp107
aa(lp108
F-1.9460064383292648
ag2
(g6
S'\xaf\x05\x7f\x0f\x13h\xb9?'
p109
tp110
Rp111
aa(lp112
F-1.933289222491371
ag2
(g6
S'O\x16\x83\x12X\xaa\xb9?'
p113
tp114
Rp115
aa(lp116
F-1.9292431288553475
ag2
(g6
S'\x15\xa3\xa5J\xb8\xaf\xb9?'
p117
tp118
Rp119
aa(lp120
F-1.9855551703417758
ag2
(g6
S'\xdb\xa8\xca\x8c-\xf7\xb9?'
p121
tp122
Rp123
aa(lp124
F-2.0269734123687524
ag2
(g6
S'\xecR\x9b\xe9\xcd\xa7\xb9?'
p125
tp126
Rp127
aa(lp128
F-1.8654794801624908
ag2
(g6
S'\x0b\xb2\x96 \xfb,\xba?'
p129
tp130
Rp131
aa(lp132
F-1.9386016850201164
ag2
(g6
S'\xba\xb8\x1e(\xaeC\xba?'
p133
tp134
Rp135
aa(lp136
F-1.8860150027212346
ag2
(g6
S'b\xe4\xc5}\x8f\x9f\xba?'
p137
tp138
Rp139
aa(lp140
F-1.8661350836482815
ag2
(g6
S'\x9c4A\xdb\xb0\x7f\xba?'
p141
tp142
Rp143
aa(lp144
F-2.0228512009477146
ag2
(g6
S'V\xe7\xe9\xf1\xee\xe2\xba?'
p145
tp146
Rp147
aa(lp148
F-1.9883262085451658
ag2
(g6
S'(\x07P\x86\xb1\t\xbb?'
p149
tp150
Rp151
aa(lp152
F-2.0034934374661857
ag2
(g6
S'H>\x85\x9c\xf6\x9c\xba?'
p153
tp154
Rp155
aa(lp156
F-1.9682089454889453
ag2
(g6
S'\x95^\xfe@W~\xba?'
p157
tp158
Rp159
aa(lp160
F-1.8945475387082755
ag2
(g6
S'\xb6\x98\xaf\x1c\x10\xcd\xba?'
p161
tp162
Rp163
aa(lp164
F-1.9089210265951735
ag2
(g6
S'\x86\x08\x93K\xee\xf7\xba?'
p165
tp166
Rp167
aa(lp168
F-1.9452098984712345
ag2
(g6
S'#%!\xd9\xc21\xbb?'
p169
tp170
Rp171
aa(lp172
F-1.959018860685984
ag2
(g6
S'\x9e\x85\x11\xdc\x18\xf6\xba?'
p173
tp174
Rp175
aa(lp176
F-2.0125100639653564
ag2
(g6
S'\xe6\x01\x00O\xb6\x00\xbb?'
p177
tp178
Rp179
aa(lp180
F-1.9869632787730696
ag2
(g6
S'\xb4T\xfc\xaa\x9f\xcf\xba?'
p181
tp182
Rp183
aa(lp184
F-1.9387803540579378
ag2
(g6
S'\xd8\xc9\xe6;%\xf6\xba?'
p185
tp186
Rp187
aa(lp188
F-1.914956378251531
ag2
(g6
S'\xd0\xd3\xbct\x84\x0c\xbb?'
p189
tp190
Rp191
aa(lp192
F-1.9602483378056321
ag2
(g6
S'-\x00\x91\xfe\x94\xea\xba?'
p193
tp194
Rp195
aa(lp196
F-1.8739748960377225
ag2
(g6
S'\x04x$\xf0H\xcd\xba?'
p197
tp198
Rp199
aa(lp200
F-1.8645971055418251
ag2
(g6
S'\r\x06\xb6?\xe9B\xba?'
p201
tp202
Rp203
aa(lp204
F-1.9483541118653815
ag2
(g6
S'\xaeu\x04\xbbIC\xbb?'
p205
tp206
Rp207
aa(lp208
F-1.8900754517055398
ag2
(g6
S'\xff\x8c\xde\x98\x8aO\xbb?'
p209
tp210
Rp211
aa(lp212
F-1.9594615560678499
ag2
(g6
S'U\xbcC@\x97!\xbc?'
p213
tp214
Rp215
aa(lp216
F-1.9294456041263268
ag2
(g6
S'm\xd6We\xd0\xd5\xbb?'
p217
tp218
Rp219
aa(lp220
F-1.8509766776615058
ag2
(g6
S'\xac\x17\xbdB/\xa5\xbb?'
p221
tp222
Rp223
aa(lp224
F-1.9520513108399975
ag2
(g6
S')\xb9\xcc\xdc\xff\xa6\xbb?'
p225
tp226
Rp227
aa(lp228
F-2.006434292615776
ag2
(g6
S'v\x9eJ\xa6\xcc\xf5\xbb?'
p229
tp230
Rp231
aa(lp232
F-1.909165276112406
ag2
(g6
S'M$\xae\xd6\xa9\xb6\xbb?'
p233
tp234
Rp235
aa(lp236
F-1.9300552920324197
ag2
(g6
S'\x94\x10>\x84\xe2\xff\xbb?'
p237
tp238
Rp239
aa(lp240
F-1.8984831515385343
ag2
(g6
S'\xb4%\xe4\xf7\xb0_\xbc?'
p241
tp242
Rp243
aa(lp244
F-1.8769472335874966
ag2
(g6
S'e=\xcdiE\x7f\xbc?'
p245
tp246
Rp247
aa(lp248
F-1.9798174569569669
ag2
(g6
S'\xfa?\xd2\x84\xfd\xd6\xbc?'
p249
tp250
Rp251
aa(lp252
F-1.9658769187517064
ag2
(g6
S'\xf4\xc3\x138\x8b\x99\xbc?'
p253
tp254
Rp255
aa(lp256
F-1.8910547688485448
ag2
(g6
S'\xf8\x8e\xe0\x07,\xf4\xbc?'
p257
tp258
Rp259
aa(lp260
F-1.9815125226918813
ag2
(g6
S'\xa6U6\x83N\xcc\xbd?'
p261
tp262
Rp263
aa(lp264
F-1.8588481822781042
ag2
(g6
S'\x87\xba$\x9eFg\xbd?'
p265
tp266
Rp267
aa(lp268
F-1.8913672827843713
ag2
(g6
S'\xd4\xcc\xd1\x07\xde>\xbd?'
p269
tp270
Rp271
aa(lp272
F-1.8700316221181381
ag2
(g6
S'\xff\xac+\xd2\xe0\t\xbd?'
p273
tp274
Rp275
aa(lp276
F-1.9212610072748508
ag2
(g6
S'\x08W\x7fD;\xb9\xbd?'
p277
tp278
Rp279
aa(lp280
F-1.967728173269766
ag2
(g6
S'\xd0Q\x06\xd6\xe6$\xbd?'
p281
tp282
Rp283
aa(lp284
F-1.8443896720876367
ag2
(g6
S'\x0f\xfc\xdb\x81\xe0&\xbd?'
p285
tp286
Rp287
aa(lp288
F-1.9659790305343527
ag2
(g6
S'T\x16\x08\xbc\xd8\x96\xbd?'
p289
tp290
Rp291
aa(lp292
F-1.8635929059680956
ag2
(g6
S'y.c\x02\x19V\xbd?'
p293
tp294
Rp295
aa(lp296
F-1.892860994598563
ag2
(g6
S'\xe3\xe8T1/L\xbd?'
p297
tp298
Rp299
aa(lp300
F-1.9713374624171904
ag2
(g6
S'\xc0\xc3\x01\x1fm^\xbd?'
p301
tp302
Rp303
aa(lp304
F-1.8963548966643708
ag2
(g6
S'*\xce\xd1\xa7C@\xbd?'
p305
tp306
Rp307
aa(lp308
F-1.8649589405225484
ag2
(g6
S"\x02'}C\x17:\xbd?"
p309
tp310
Rp311
aa(lp312
F-1.888429593795827
ag2
(g6
S'(7\xae_J~\xbd?'
p313
tp314
Rp315
aa(lp316
F-1.9038858979931308
ag2
(g6
S'{\xeb|\xcd:\xd4\xbd?'
p317
tp318
Rp319
aa(lp320
F-2.013823912724337
ag2
(g6
S'\xb2\x8aI\xd4\xde%\xbe?'
p321
tp322
Rp323
aa(lp324
F-1.9890933436827574
ag2
(g6
S'\x7f7v4E\x93\xbe?'
p325
tp326
Rp327
aa(lp328
F-1.8931876565632377
ag2
(g6
S'Ko\x98\xc4k,\xbe?'
p329
tp330
Rp331
aa(lp332
F-1.8988814744220883
ag2
(g6
S'\xc1\xe9\xed\xd9<\xfa\xbd?'
p333
tp334
Rp335
aa(lp336
F-1.9159829778055535
ag2
(g6
S"6?'\x10\xef\xa0\xbe?"
p337
tp338
Rp339
aa(lp340
F-1.966346566156944
ag2
(g6
S'+\xae\xc1"\xce\x07\xbf?'
p341
tp342
Rp343
aa(lp344
F-1.7899306429004558
ag2
(g6
S'\xf0\xf9\x1d\x9f^\xb2\xbe?'
p345
tp346
Rp347
aa(lp348
F-1.9322795715282863
ag2
(g6
S'\xb2R\xc1\x8fr\x8a\xbe?'
p349
tp350
Rp351
aa(lp352
F-1.8605282078045662
ag2
(g6
S'\xa4\x02B\x90\x07\xb1\xbe?'
p353
tp354
Rp355
aa(lp356
F-1.8937019459028404
ag2
(g6
S'yI\xb5.\xcf\xe2\xbd?'
p357
tp358
Rp359
aa(lp360
F-1.906718217075599
ag2
(g6
S"\xf1Y'\xa9\xf0[\xbe?"
p361
tp362
Rp363
aa(lp364
F-1.8743805397407294
ag2
(g6
S'\xe4\xe2p\x9c\xe0\xaa\xbe?'
p365
tp366
Rp367
aa(lp368
F-1.8933118331688303
ag2
(g6
S"\\\xe4',>o\xbe?"
p369
tp370
Rp371
aa(lp372
F-1.986128180747353
ag2
(g6
S'\x1c)7q\xd4\x95\xbd?'
p373
tp374
Rp375
aa(lp376
F-1.992317259857919
ag2
(g6
S'\xdc-\xbd\x8e&\xc0\xbd?'
p377
tp378
Rp379
aa(lp380
F-1.8798190058600326
ag2
(g6
S'\xfaF\xfd\xf6I\xb7\xbd?'
p381
tp382
Rp383
aa(lp384
F-1.8998456069054888
ag2
(g6
S'\xca\xbb\xd6utJ\xbd?'
p385
tp386
Rp387
aa(lp388
F-1.9053188392932687
ag2
(g6
S'\x1c\xe3!^\x9f\xd9\xbc?'
p389
tp390
Rp391
aa(lp392
F-1.939395087973294
ag2
(g6
S'-\xa2\xcd\xc6\xad\n\xbd?'
p393
tp394
Rp395
aa(lp396
F-1.9639023870991867
ag2
(g6
S'\xfd\xb4\xdb\x1ac\x11\xbd?'
p397
tp398
Rp399
aa(lp400
F-1.908340527164697
ag2
(g6
S'\xaa\x8dP\xf2\x02\xcd\xbc?'
p401
tp402
Rp403
aa(lp404
F-1.9568095218211912
ag2
(g6
S'\x8d.\x891\x7f\t\xbd?'
p405
tp406
Rp407
aa(lp408
F-1.774174751234535
ag2
(g6
S'R$\x85\xcc\x8c\x06\xbd?'
p409
tp410
Rp411
aa(lp412
F-1.9631578680581256
ag2
(g6
S'\xd8\xf6\x14\xb5\x8eH\xbd?'
p413
tp414
Rp415
aa(lp416
F-1.8508635181660675
ag2
(g6
S'\x17^\x15`\xff7\xbd?'
p417
tp418
Rp419
aa(lp420
F-1.988195567760363
ag2
(g6
S"\x0c't\x11.\xc2\xbd?"
p421
tp422
Rp423
aa(lp424
F-1.9095500153223375
ag2
(g6
S'\x869\xd8 =)\xbe?'
p425
tp426
Rp427
aa(lp428
F-1.8013336878385018
ag2
(g6
S'\xeb\xd5\xf7\x00\xf0\t\xbe?'
p429
tp430
Rp431
aa(lp432
F-1.9709179751302361
ag2
(g6
S'\xd4\x14\xb9u\xb9P\xbe?'
p433
tp434
Rp435
aa(lp436
F-1.9116646940683089
ag2
(g6
S'eT\xd0w\x1fk\xbe?'
p437
tp438
Rp439
aa(lp440
F-1.8841587836657405
ag2
(g6
S'7\x87"\x90b8\xbe?'
p441
tp442
Rp443
aa(lp444
F-1.8704145626369004
ag2
(g6
S'\x90\xc7\xfdg\xf2\x18\xbe?'
p445
tp446
Rp447
aa(lp448
F-1.9105878902467732
ag2
(g6
S'\x11\x90\x96\xb0\x9a\n\xbe?'
p449
tp450
Rp451
aa(lp452
F-1.8518346417751406
ag2
(g6
S'uU\xbfkv^\xbe?'
p453
tp454
Rp455
aa(lp456
F-1.926259103995224
ag2
(g6
S'/\x963?\x9f\xb4\xbe?'
p457
tp458
Rp459
aa(lp460
F-1.9159160388436633
ag2
(g6
S'n\xa9\xe7\x01\xd1K\xbe?'
p461
tp462
Rp463
aa(lp464
F-1.8923057738573863
ag2
(g6
S'A\x94x\\:.\xbe?'
p465
tp466
Rp467
aa(lp468
F-1.8896177951342719
ag2
(g6
S'\x0e].$Y\xf3\xbd?'
p469
tp470
Rp471
aa(lp472
F-1.9704276485014922
ag2
(g6
S'+\x00C\xc8\\>\xbd?'
p473
tp474
Rp475
aa(lp476
F-1.8639453541765802
ag2
(g6
S'\x18\x1beH4\xb7\xbd?'
p477
tp478
Rp479
aa(lp480
F-1.831142602678598
ag2
(g6
S'\x967{\xab\x18\xdb\xbd?'
p481
tp482
Rp483
aa(lp484
F-1.8966932385356332
ag2
(g6
S'\xa8\x14\xe5\r\xc3\n\xbe?'
p485
tp486
Rp487
aa(lp488
F-1.9915255736659052
ag2
(g6
S"\xbe#'Y'[\xbe?"
p489
tp490
Rp491
aa(lp492
F-1.877615087648929
ag2
(g6
S'Y\xb5\xf1\x13A\x0e\xbf?'
p493
tp494
Rp495
aa(lp496
F-1.8732660389237876
ag2
(g6
S"Tv\xca\xa9\xd9'\xbf?"
p497
tp498
Rp499
aa(lp500
F-1.9021154432555025
ag2
(g6
S'f}\xdc\xc5\xe4)\xbf?'
p501
tp502
Rp503
aa(lp504
F-1.8283230796606045
ag2
(g6
S'y\x08\xdf`\x16\x8c\xbf?'
p505
tp506
Rp507
aa(lp508
F-1.8140482405883624
ag2
(g6
S'\x1e\xc2\xca:\xa4Z\xbf?'
p509
tp510
Rp511
aa(lp512
F-1.9416874141580043
ag2
(g6
S'\xe2\r\xaf\x15=\xa9\xbf?'
p513
tp514
Rp515
aa(lp516
F-1.8155340372957802
ag2
(g6
S'Z O\x8a\xf5\xa3\xbf?'
p517
tp518
Rp519
aa(lp520
F-1.9285394820958337
ag2
(g6
S'U@q\x85V\xa0\xbf?'
p521
tp522
Rp523
aa(lp524
F-1.9371106915112182
ag2
(g6
S'\xb5\xbf\x88\x08\xa4\x96\xbf?'
p525
tp526
Rp527
aa(lp528
F-1.8382533314344596
ag2
(g6
S'\xaa\x81\xf7Xkh\xbf?'
p529
tp530
Rp531
aa(lp532
F-1.8999795328652282
ag2
(g6
S'3\n\x8a\xd9\xd8\xd2\xbf?'
p533
tp534
Rp535
aa(lp536
F-1.9151438053730296
ag2
(g6
S'\x93\x81\xd4K>\x87\xbf?'
p537
tp538
Rp539
aa(lp540
F-1.9082749257880371
ag2
(g6
S'\xa3\x19\xd0IHq\xbf?'
p541
tp542
Rp543
aa(lp544
F-1.8896320304807515
ag2
(g6
S'\xe0\x0e\x1a\x85\xc6\x81\xbf?'
p545
tp546
Rp547
aa(lp548
F-1.9318326118143865
ag2
(g6
S"\xab\r;'\x1f\x9b\xbf?"
p549
tp550
Rp551
aa(lp552
F-1.9128524460458112
ag2
(g6
S'7\xb4\x8c\xfe\xb5\xd6\xbf?'
p553
tp554
Rp555
aa(lp556
F-1.929890311105244
ag2
(g6
S'S\x1f\xc8.O\t\xc0?'
p557
tp558
Rp559
aa(lp560
F-1.8855956226945134
ag2
(g6
S'\x8f\n6\xf5R\x15\xc0?'
p561
tp562
Rp563
aa(lp564
F-2.0025998232095503
ag2
(g6
S'2Q&1\xccc\xbf?'
p565
tp566
Rp567
aa(lp568
F-1.958431103549021
ag2
(g6
S'.\x8aC&\xf7\xb5\xbf?'
p569
tp570
Rp571
aa(lp572
F-1.9265384039591886
ag2
(g6
S'\xdc\x85\xea)M\xda\xbf?'
p573
tp574
Rp575
aa(lp576
F-1.8914192355912358
ag2
(g6
S'\xa2\xc3y/\xd1\xc1\xbf?'
p577
tp578
Rp579
aa(lp580
F-1.9280643354600302
ag2
(g6
S'4=\x1c{\xf4\xf9\xbe?'
p581
tp582
Rp583
aa(lp584
F-1.9663682412995205
ag2
(g6
S'D\x19$k\xa4\xf4\xbd?'
p585
tp586
Rp587
aa(lp588
F-1.8035065210779282
ag2
(g6
S'\xe5\xae6\xbe\x10e\xbe?'
p589
tp590
Rp591
aa(lp592
F-1.926537592760242
ag2
(g6
S'C\x9c3^F\x8a\xbe?'
p593
tp594
Rp595
aa(lp596
F-1.8450361936550472
ag2
(g6
S'\xda\xeb8\x85\xec\x95\xbe?'
p597
tp598
Rp599
aa(lp600
F-1.979858355334167
ag2
(g6
S'\xf6\x10\x12QF%\xbf?'
p601
tp602
Rp603
aa(lp604
F-1.925426075562728
ag2
(g6
S'\xa6\xb2\xafw\xa1V\xbf?'
p605
tp606
Rp607
aa(lp608
F-1.8490231482344535
ag2
(g6
S'\x9e\x8c\xe2`\xbf|\xbf?'
p609
tp610
Rp611
aa(lp612
F-1.8521740888152083
ag2
(g6
S'\xaeMR\xb8\xd4/\xbf?'
p613
tp614
Rp615
aa(lp616
F-1.8499758346961483
ag2
(g6
S'\xb9\x1a\x12\x8e\xb6p\xbf?'
p617
tp618
Rp619
aa(lp620
F-1.996927675530775
ag2
(g6
S'\xf6\x1c\xd2$\x16\x1e\xbf?'
p621
tp622
Rp623
aa(lp624
F-1.8289446708164936
ag2
(g6
S'*\x1a^\xae1\xfa\xbe?'
p625
tp626
Rp627
aa(lp628
F-1.9099404049746986
ag2
(g6
S'd5;\xeb\xf5d\xbf?'
p629
tp630
Rp631
aa(lp632
F-1.8851563846842228
ag2
(g6
S'\xf9%\xc3\xa93b\xbf?'
p633
tp634
Rp635
aa(lp636
F-1.8990892256019625
ag2
(g6
S'E\x8cA|\xa0p\xbf?'
p637
tp638
Rp639
aa(lp640
F-1.8567242268372257
ag2
(g6
S'mL\xeaG\x060\xbf?'
p641
tp642
Rp643
aa(lp644
F-1.9064187607233793
ag2
(g6
S'\xc9he{\x8b\xab\xbf?'
p645
tp646
Rp647
aa(lp648
F-1.920947311798094
ag2
(g6
S'_u\xf3\xcd\x1c\x0c\xc0?'
p649
tp650
Rp651
aa(lp652
F-1.8738387252423017
ag2
(g6
S'\x1b1&\x98\xa7A\xc0?'
p653
tp654
Rp655
aa(lp656
F-1.867297230822579
ag2
(g6
S'\r\x1d\x84v\x8b\x1e\xc0?'
p657
tp658
Rp659
aa(lp660
F-1.890752232027937
ag2
(g6
S'\xcfc/M\xe6<\xc0?'
p661
tp662
Rp663
aa(lp664
F-1.9138430656059155
ag2
(g6
S'Z\xbd\x96\xeei-\xc0?'
p665
tp666
Rp667
aa(lp668
F-1.8431129670404027
ag2
(g6
S'3|\xb6\x83\x0e\x03\xc0?'
p669
tp670
Rp671
aa(lp672
F-1.8939261675298658
ag2
(g6
S'\x8b\x8dlI\x874\xc0?'
p673
tp674
Rp675
aa(lp676
F-1.922603711802217
ag2
(g6
S'\xcfZ\x04\x8e\xf97\xc0?'
p677
tp678
Rp679
aa(lp680
F-1.8019107109617656
ag2
(g6
S"D\x8f\xa5\xdd\x97'\xc0?"
p681
tp682
Rp683
aa(lp684
F-1.8893855504721702
ag2
(g6
S'\xf0M\x8c[i_\xbf?'
p685
tp686
Rp687
aa(lp688
F-1.8719200472175035
ag2
(g6
S'\xc6h}\x8b\xf6p\xbf?'
p689
tp690
Rp691
aa(lp692
F-1.8778835728332541
ag2
(g6
S'\x11\xef\x9c\xf1\xa6?\xbf?'
p693
tp694
Rp695
aa(lp696
F-1.8756432249966672
ag2
(g6
S'\x8d\xb1\xc4\xb1Z\xe1\xbe?'
p697
tp698
Rp699
aa(lp700
F-1.8453899320220117
ag2
(g6
S'\xf1\x10\xc6\xa04>\xbe?'
p701
tp702
Rp703
aa(lp704
F-1.9279660365927442
ag2
(g6
S'\x99\xcb=\xa1\x86_\xbe?'
p705
tp706
Rp707
aa(lp708
F-1.863304413699614
ag2
(g6
S'\xba%\xe0\xceF:\xbe?'
p709
tp710
Rp711
aa(lp712
F-1.8940790760396207
ag2
(g6
S'Qa6x9\xf3\xbd?'
p713
tp714
Rp715
aa(lp716
F-1.840054152072816
ag2
(g6
S'gH\xc4+\x90D\xbe?'
p717
tp718
Rp719
aa(lp720
F-1.8758270560169008
ag2
(g6
S'\x85E\xa8\xda\x88U\xbe?'
p721
tp722
Rp723
aa(lp724
F-1.8820645311652764
ag2
(g6
S'\xc7>\xc7\xec\xb9~\xbe?'
p725
tp726
Rp727
aa(lp728
F-1.9095676894691334
ag2
(g6
S'x]\x013<\xdb\xbd?'
p729
tp730
Rp731
aa(lp732
F-1.8570281287531487
ag2
(g6
S'\x8fp\rE\x04\xc7\xbd?'
p733
tp734
Rp735
aa(lp736
F-1.9332043447079843
ag2
(g6
S'\x91/\xd8\n\xcf+\xbd?'
p737
tp738
Rp739
aa(lp740
F-1.9088347355915063
ag2
(g6
S'\xae\xa8\x04\xb7\xb4\r\xbd?'
p741
tp742
Rp743
aa(lp744
F-1.9284635586937457
ag2
(g6
S'\xe0A\xb3k\xb3\x96\xbc?'
p745
tp746
Rp747
aa(lp748
F-1.953986896274244
ag2
(g6
S'\xe0\xee\n\x99\xc2\x18\xbc?'
p749
tp750
Rp751
aa(lp752
F-2.012684772336026
ag2
(g6
S'R)-\x96\xd8\xf9\xbb?'
p753
tp754
Rp755
aa(lp756
F-1.9585544789172968
ag2
(g6
S'\xabi\x7f\x1b8\n\xbc?'
p757
tp758
Rp759
aa(lp760
F-1.8706363673837516
ag2
(g6
S'\xfeYx&\xf4*\xbc?'
p761
tp762
Rp763
aa(lp764
F-1.9449144189029852
ag2
(g6
S'O\xab\x9b\xd8\x08E\xbc?'
p765
tp766
Rp767
aa(lp768
F-1.8934651258936372
ag2
(g6
S'\xc6\xc1\xd9\xb1\x04R\xbc?'
p769
tp770
Rp771
aa(lp772
F-1.8940271924189926
ag2
(g6
S'F\xd2\xf7-\x85\xc2\xbb?'
p773
tp774
Rp775
aa(lp776
F-1.867052013108327
ag2
(g6
S'\x8dP\xad\xd8\x9d\x1c\xbc?'
p777
tp778
Rp779
aa(lp780
F-1.967010076374239
ag2
(g6
S'6XZ\x96!b\xbc?'
p781
tp782
Rp783
aa(lp784
F-1.9331473621604538
ag2
(g6
S'G\xe4\xe0\xaa\xb6b\xbc?'
p785
tp786
Rp787
aa(lp788
F-1.983030272832483
ag2
(g6
S'\x08\xd0\x07\xe8\x83\x17\xbd?'
p789
tp790
Rp791
aa(lp792
F-1.8716794952427942
ag2
(g6
S'\x89\xc1\xa1\xf5U\x11\xbd?'
p793
tp794
Rp795
aa(lp796
F-1.8864923607639725
ag2
(g6
S'\xfaBnS\xf0H\xbd?'
p797
tp798
Rp799
aa(lp800
F-1.8523610644815367
ag2
(g6
S'\x8bj\x1a\xb1\x06\x08\xbd?'
p801
tp802
Rp803
aa(lp804
F-1.8915630098409295
ag2
(g6
S'\xa9\x1a\x1a\x1c\\P\xbd?'
p805
tp806
Rp807
aa(lp808
F-1.911407682501433
ag2
(g6
S'l\xb6\x8f\x0cEj\xbd?'
p809
tp810
Rp811
aa(lp812
F-1.901314790993609
ag2
(g6
S'\xca(6J?Q\xbd?'
p813
tp814
Rp815
aa(lp816
F-1.9155933182139613
ag2
(g6
S'T61\xb2#C\xbd?'
p817
tp818
Rp819
aa(lp820
F-1.9326813593831613
ag2
(g6
S'\x00[c\n\x83Y\xbd?'
p821
tp822
Rp823
aa(lp824
F-1.9171124171275449
ag2
(g6
S'\x9a\x86*\xf40/\xbd?'
p825
tp826
Rp827
aa(lp828
F-1.9515119654674253
ag2
(g6
S'\x8e\xd8c\xbaVB\xbd?'
p829
tp830
Rp831
aa(lp832
F-1.9397661985877228
ag2
(g6
S'\xed\xa3x\xf7\xb5\xdb\xbc?'
p833
tp834
Rp835
aa(lp836
F-1.943326489176482
ag2
(g6
S'\xd3\xd4%\xca\xa4\x0c\xbc?'
p837
tp838
Rp839
aa(lp840
F-1.8518597159674852
ag2
(g6
S'\xeeg\x0c\xc2\xb8p\xbc?'
p841
tp842
Rp843
aa(lp844
F-1.9527149110448974
ag2
(g6
S'\x01\x1b\xf5\xdf\xe8\x8b\xbc?'
p845
tp846
Rp847
aa(lp848
F-1.8559631410739217
ag2
(g6
S'o\xc4\xc9\xca\xa9\xa5\xbc?'
p849
tp850
Rp851
aa(lp852
F-1.908963203785465
ag2
(g6
S'^\xca\xb4_\x98G\xbc?'
p853
tp854
Rp855
aa(lp856
F-1.9419603627699067
ag2
(g6
S'(\x14\xae\n\xfd^\xbc?'
p857
tp858
Rp859
aa(lp860
F-1.9552355953234009
ag2
(g6
S'\xdfkO\x95\x0bg\xbc?'
p861
tp862
Rp863
aa(lp864
F-1.9775741394342785
ag2
(g6
S'\x1d\x0b)\x03+\x92\xbb?'
p865
tp866
Rp867
aa(lp868
F-1.9558521219525213
ag2
(g6
S'\xa2l\xaa=&4\xbb?'
p869
tp870
Rp871
aa(lp872
F-1.9044614406605143
ag2
(g6
S'#\x18\xf9;M\x90\xbb?'
p873
tp874
Rp875
aa(lp876
F-1.8865561700956897
ag2
(g6
S'\x8dM\xb1\xa1h\xc6\xbb?'
p877
tp878
Rp879
aa(lp880
F-1.9478765237416866
ag2
(g6
S'\x9e\xc1\xe9=\x87v\xbb?'
p881
tp882
Rp883
aa(lp884
F-2.016052983759848
ag2
(g6
S"\x10\xed'\xca=\xb5\xbb?"
p885
tp886
Rp887
aa(lp888
F-1.8868953661075425
ag2
(g6
S'\xa9-\x96>\xef\x95\xbb?'
p889
tp890
Rp891
aa(lp892
F-1.9728594922298133
ag2
(g6
S'\xd7K\xcc\xcd\xc3\xaa\xbb?'
p893
tp894
Rp895
aa(lp896
F-1.8233190636888796
ag2
(g6
S'\xfd\xdf\xd3\x0b\x16\x08\xbb?'
p897
tp898
Rp899
aa(lp900
F-1.99617328629687
ag2
(g6
S'j\t\xbf\xa3\xa0\x1f\xbb?'
p901
tp902
Rp903
aa(lp904
F-1.9449535935566842
ag2
(g6
S'\xbb \xc7\xf6\xd4\xf6\xba?'
p905
tp906
Rp907
aa(lp908
F-1.9394042729902883
ag2
(g6
S'\xef\x16\xce\x08\x92\x11\xbb?'
p909
tp910
Rp911
aa(lp912
F-1.975153004457506
ag2
(g6
S'\x9c\xc1\x187\x91\xb6\xba?'
p913
tp914
Rp915
aa(lp916
F-1.9748674049652784
ag2
(g6
S'\xbdjk|\xad\xc2\xba?'
p917
tp918
Rp919
aa(lp920
F-1.9108058893303734
ag2
(g6
S'j\xde\xb8\xcf\xeb\x9e\xba?'
p921
tp922
Rp923
aa(lp924
F-1.965514176517194
ag2
(g6
S'M\x00\x85\x88\xdd\xab\xba?'
p925
tp926
Rp927
aa(lp928
F-1.9376734053541058
ag2
(g6
S'\xa9\x96\x99\xf7\x83\x93\xba?'
p929
tp930
Rp931
aa(lp932
F-1.9650481396411315
ag2
(g6
S'?V\x8d\x11\\\xcb\xba?'
p933
tp934
Rp935
aa(lp936
F-1.8781338705949366
ag2
(g6
S'&$p:#O\xbb?'
p937
tp938
Rp939
aa(lp940
F-1.928684398344744
ag2
(g6
S'\xaf*\x018\xa8o\xbb?'
p941
tp942
Rp943
aa(lp944
F-2.0457344336978074
ag2
(g6
S'\xbc\xa0\xa3\xe0D\x8a\xbb?'
p945
tp946
Rp947
aa(lp948
F-1.96433572691042
ag2
(g6
S'\xa0\x9af\x8es\x9f\xbb?'
p949
tp950
Rp951
aa(lp952
F-2.0608264766905617
ag2
(g6
S'p6\xa2\x92\x8b\xa2\xbb?'
p953
tp954
Rp955
aa(lp956
F-1.9519081076653988
ag2
(g6
S'\x11=\x16\xd7\xcdi\xbb?'
p957
tp958
Rp959
aa(lp960
F-2.000929508297437
ag2
(g6
S'\xb6\xe4\xfe\xa2\xa9\x99\xbb?'
p961
tp962
Rp963
aa(lp964
F-1.9072921911032095
ag2
(g6
S'\xf23,\xfc/\x9c\xbc?'
p965
tp966
Rp967
aa(lp968
F-1.887972266994624
ag2
(g6
S'\x98\xe6J\x10uV\xbc?'
p969
tp970
Rp971
aa(lp972
F-1.8825149304626838
ag2
(g6
S'\x8eZ\xe0\xf3Q\xa5\xbc?'
p973
tp974
Rp975
aa(lp976
F-1.9400747877470774
ag2
(g6
S'\x0b\x81\xd6>\x9e\xd8\xbc?'
p977
tp978
Rp979
aa(lp980
F-1.8724420609904457
ag2
(g6
S'\x83O\xe4M#|\xbc?'
p981
tp982
Rp983
aa(lp984
F-1.9738802245311404
ag2
(g6
S'\xb6y\xd2&\xd0\xf0\xbb?'
p985
tp986
Rp987
aa(lp988
F-1.9252759397262122
ag2
(g6
S'\xf8\xdbf\xb1\x91\x0b\xbc?'
p989
tp990
Rp991
aa(lp992
F-1.8690028558577745
ag2
(g6
S'\xbd\x1d\xd4^\xa1\x82\xbc?'
p993
tp994
Rp995
aa(lp996
F-1.9408485341039714
ag2
(g6
S'l\xca\xfe@\xdf8\xbc?'
p997
tp998
Rp999
aa(lp1000
F-1.9723320880132431
ag2
(g6
S'\x8b\x1f\xca\x93\x96l\xbc?'
p1001
tp1002
Rp1003
aa(lp1004
F-1.9121667425395195
ag2
(g6
S'pYO\xb2\xf6n\xbc?'
p1005
tp1006
Rp1007
aa(lp1008
F-1.9380919715477178
ag2
(g6
S'\xa4T\xceM\x86l\xbc?'
p1009
tp1010
Rp1011
aa(lp1012
F-1.983894746827838
ag2
(g6
S'\xd3\xd0\x8c""a\xbc?'
p1013
tp1014
Rp1015
aa(lp1016
F-1.8959022797556255
ag2
(g6
S'\x1a\xa2\x8d#Y\xdb\xbb?'
p1017
tp1018
Rp1019
aa(lp1020
F-1.9272186728023961
ag2
(g6
S'yz\x94U\x18{\xbb?'
p1021
tp1022
Rp1023
aa(lp1024
F-1.8542609313281595
ag2
(g6
S'}\xea_;\xafK\xbb?'
p1025
tp1026
Rp1027
aa(lp1028
F-2.0734347945618077
ag2
(g6
S'\x9b\x94g\xc3\xa1\x98\xba?'
p1029
tp1030
Rp1031
aa(lp1032
F-2.0136718505089135
ag2
(g6
S'\x99\xf4f\xfe\xbd|\xba?'
p1033
tp1034
Rp1035
aa(lp1036
F-2.000978617865449
ag2
(g6
S'4t\xfe\xff\xec\x1a\xba?'
p1037
tp1038
Rp1039
aa(lp1040
F-1.8105283167093746
ag2
(g6
S'\xb3\x97\x07\xaad\xae\xb9?'
p1041
tp1042
Rp1043
aa(lp1044
F-1.8336867357488742
ag2
(g6
S'\xf7\xbce\xd9\xdf\xcb\xb9?'
p1045
tp1046
Rp1047
aa(lp1048
F-1.886953231275345
ag2
(g6
S'\x00G`d\xd7\xf8\xb9?'
p1049
tp1050
Rp1051
aa(lp1052
F-2.0811360024963075
ag2
(g6
S'\xa3rY^V|\xb9?'
p1053
tp1054
Rp1055
aa(lp1056
F-2.0843840692313584
ag2
(g6
S'\ty\x1f6\xa4\xa7\xb9?'
p1057
tp1058
Rp1059
aa(lp1060
F-1.8259997354543906
ag2
(g6
S'm\x8a\xc7\xb1\xe4\x88\xb9?'
p1061
tp1062
Rp1063
aa(lp1064
F-2.0403938556125434
ag2
(g6
S'\x94\x04:C\xb6s\xb9?'
p1065
tp1066
Rp1067
aa(lp1068
F-1.9570588160419506
ag2
(g6
S'\xfeai6U\xc5\xb9?'
p1069
tp1070
Rp1071
aa(lp1072
F-2.0093375883282607
ag2
(g6
S'\xd4<\xa6\xc8\x0cN\xb9?'
p1073
tp1074
Rp1075
aa(lp1076
F-2.004069678046356
ag2
(g6
S'\xf2.&\xb2Gz\xb9?'
p1077
tp1078
Rp1079
aa(lp1080
F-2.0707748892249134
ag2
(g6
S'Q\xff\xe2\x85\x8c\x19\xba?'
p1081
tp1082
Rp1083
aa(lp1084
F-2.0151987506416633
ag2
(g6
S'|0\x18\xd8>\x97\xba?'
p1085
tp1086
Rp1087
aa(lp1088
F-1.9508312410005149
ag2
(g6
S'"\xb8\xa8\xb3\x9f\x8f\xba?'
p1089
tp1090
Rp1091
aa(lp1092
F-1.8984290792791167
ag2
(g6
S'g3I\xcc\x00\x98\xba?'
p1093
tp1094
Rp1095
aa(lp1096
F-1.9945316875603438
ag2
(g6
S'\xc9\xd4Ks+\xf8\xba?'
p1097
tp1098
Rp1099
aa(lp1100
F-1.9624504670677487
ag2
(g6
S'\n\x87\xe0\xa7\xa3\xcc\xba?'
p1101
tp1102
Rp1103
aa(lp1104
F-1.947758191144476
ag2
(g6
S'4\xf9\xa6\x0b\x0eb\xba?'
p1105
tp1106
Rp1107
aa(lp1108
F-1.9399439637644804
ag2
(g6
S'\x06\x14\r\xf0\x99\xbb\xba?'
p1109
tp1110
Rp1111
aa(lp1112
F-1.9288536689502507
ag2
(g6
S'T)\xe5\xaf)\xa5\xba?'
p1113
tp1114
Rp1115
aa(lp1116
F-1.8828250110464564
ag2
(g6
S'\xa2im \xd6`\xba?'
p1117
tp1118
Rp1119
aa(lp1120
F-1.8722002562297468
ag2
(g6
S'\xc0\x07\x17\x8b@g\xba?'
p1121
tp1122
Rp1123
aa(lp1124
F-2.061978551658051
ag2
(g6
S'=K\xc8 \xfdO\xba?'
p1125
tp1126
Rp1127
aa(lp1128
F-1.900405346134915
ag2
(g6
S'\x85\xc67\xec\x1c\x92\xba?'
p1129
tp1130
Rp1131
aa(lp1132
F-1.8824927428528198
ag2
(g6
S'%\xd0\xae\xcdJ\xfc\xba?'
p1133
tp1134
Rp1135
aa(lp1136
F-1.9252903773109575
ag2
(g6
S'\xd5\x98#\xaa\xe4\x7f\xba?'
p1137
tp1138
Rp1139
aa(lp1140
F-1.9648128807513057
ag2
(g6
S'*L\x10\x8e\xe1U\xba?'
p1141
tp1142
Rp1143
aa(lp1144
F-1.9622479626693416
ag2
(g6
S'U\xcb\xa5\xde\xf0\xa7\xba?'
p1145
tp1146
Rp1147
aa(lp1148
F-1.9744504148624757
ag2
(g6
S'\xc9\xd1`\xc0\x9c\x92\xba?'
p1149
tp1150
Rp1151
aa(lp1152
F-1.9178699826912697
ag2
(g6
S'elX\xfe3V\xba?'
p1153
tp1154
Rp1155
aa(lp1156
F-1.9130656169397786
ag2
(g6
S'\xad\xb2\xa9\xd9K\x01\xbb?'
p1157
tp1158
Rp1159
aa(lp1160
F-1.8670360268154815
ag2
(g6
S'%\xf3\xa9\xae\x883\xbb?'
p1161
tp1162
Rp1163
aa(lp1164
F-1.891013807582122
ag2
(g6
S'\xf4\xc0\x1ba\xb1\xad\xbb?'
p1165
tp1166
Rp1167
aa(lp1168
F-1.9019202870539795
ag2
(g6
S'\xac-\xfb\x7f\xec\x8e\xbb?'
p1169
tp1170
Rp1171
aa(lp1172
F-1.9452418788247454
ag2
(g6
S'\xf6_\xb3!b\x94\xbb?'
p1173
tp1174
Rp1175
aa(lp1176
F-1.96314250158633
ag2
(g6
S'\xd4\xf9\xa9^T\x89\xbb?'
p1177
tp1178
Rp1179
aa(lp1180
F-1.9757455570179234
ag2
(g6
S'?\xcc\xa93"6\xbb?'
p1181
tp1182
Rp1183
aa(lp1184
F-1.9726773573915464
ag2
(g6
S'\xef\xe2\xb0%}\xb6\xbb?'
p1185
tp1186
Rp1187
aa(lp1188
F-1.9574332227872429
ag2
(g6
S'B:\xdd`\xdb\xf4\xbb?'
p1189
tp1190
Rp1191
aa(lp1192
F-1.9745671596437164
ag2
(g6
S'EU\x1d~!L\xbc?'
p1193
tp1194
Rp1195
aa(lp1196
F-1.968503350421826
ag2
(g6
S'\xee\x1c\xf1\xb2\xd7Y\xbc?'
p1197
tp1198
Rp1199
aa(lp1200
F-1.9883059670972125
ag2
(g6
S'7x\xa2\xa6J$\xbc?'
p1201
tp1202
Rp1203
aa(lp1204
F-1.8925012024844905
ag2
(g6
S'W\xe3zo\x16\xfc\xbb?'
p1205
tp1206
Rp1207
aa(lp1208
F-1.987272199910461
ag2
(g6
S'2i\x08\xe1\xf7$\xbc?'
p1209
tp1210
Rp1211
aa(lp1212
F-1.9675296400299058
ag2
(g6
S'\xec\xc2\x89\x14\xd5r\xbc?'
p1213
tp1214
Rp1215
aa(lp1216
F-1.9008105396187416
ag2
(g6
S'P\x1eq\x10\xc5-\xbc?'
p1217
tp1218
Rp1219
aa(lp1220
F-1.9261414992045947
ag2
(g6
S'_\xaa\xe05H\xd3\xbb?'
p1221
tp1222
Rp1223
aa(lp1224
F-2.0049488251905268
ag2
(g6
S'\x0f[\xa0\xa8\xfd\x91\xbb?'
p1225
tp1226
Rp1227
aa(lp1228
F-1.8829060895188967
ag2
(g6
S'\xfai7\xef\xfc3\xbc?'
p1229
tp1230
Rp1231
aa(lp1232
F-1.931872627760486
ag2
(g6
S'\xad\xbf\x17c\xf45\xbc?'
p1233
tp1234
Rp1235
aa(lp1236
F-1.9398888000680137
ag2
(g6
S'7 -\xe1zR\xbc?'
p1237
tp1238
Rp1239
aa(lp1240
F-1.9586093294101408
ag2
(g6
S'k\xf6\x93\xdb\xd1\xd6\xbc?'
p1241
tp1242
Rp1243
aa(lp1244
F-1.8757608667869092
ag2
(g6
S'}\xcb7\xc3\xfc\xea\xbc?'
p1245
tp1246
Rp1247
aa(lp1248
F-1.9026458244659792
ag2
(g6
S'\xd6r\xccu\xaa\x85\xbc?'
p1249
tp1250
Rp1251
aa(lp1252
F-1.824806899383818
ag2
(g6
S'!\xa6\xd6\xd9\xb8s\xbc?'
p1253
tp1254
Rp1255
aa(lp1256
F-1.9542468969445912
ag2
(g6
S'\t\xc5\xe9\x04\xd4b\xbc?'
p1257
tp1258
Rp1259
aa(lp1260
F-2.040818444200959
ag2
(g6
S'\xda\xa7\xd6Zj\xd9\xbc?'
p1261
tp1262
Rp1263
aa(lp1264
F-1.9138915995558248
ag2
(g6
S'{A^I\xd1\xe9\xbc?'
p1265
tp1266
Rp1267
aa(lp1268
F-1.8851212720091406
ag2
(g6
S'\xd1o\xe4+C\xfd\xbc?'
p1269
tp1270
Rp1271
aa(lp1272
F-1.8957055900232427
ag2
(g6
S'\xd3 \xdf7}i\xbd?'
p1273
tp1274
Rp1275
aa(lp1276
F-1.9072072633882935
ag2
(g6
S'\xb4u\xff\x83\x93\x91\xbd?'
p1277
tp1278
Rp1279
aa(lp1280
F-1.9440437534549948
ag2
(g6
S'\x99\xe1\x1b\xd6tn\xbd?'
p1281
tp1282
Rp1283
aa(lp1284
F-1.8442868560183296
ag2
(g6
S'\x00\xc6m"\xc4s\xbd?'
p1285
tp1286
Rp1287
aa(lp1288
F-1.9352521688315851
ag2
(g6
S'\x07\xf7(\xef\x91\xc5\xbd?'
p1289
tp1290
Rp1291
aa(lp1292
F-1.8759934490827836
ag2
(g6
S'z\xd7E\xe8\xfc\xdd\xbd?'
p1293
tp1294
Rp1295
aa(lp1296
F-1.8679478740747841
ag2
(g6
S'\xf0\xd2H7\xf0t\xbd?'
p1297
tp1298
Rp1299
aa(lp1300
F-1.94975315536603
ag2
(g6
S'2\x10<\xaa=4\xbd?'
p1301
tp1302
Rp1303
aa(lp1304
F-1.8926541180855136
ag2
(g6
S'wG\xbdR\x91\x15\xbd?'
p1305
tp1306
Rp1307
aa(lp1308
F-1.8777167486637838
ag2
(g6
S'\xcc!\r\xa4q2\xbd?'
p1309
tp1310
Rp1311
aa(lp1312
F-1.9078185730548758
ag2
(g6
S"\x85\xf0\xdd\xfb\xc7'\xbd?"
p1313
tp1314
Rp1315
aa(lp1316
F-1.9896407363818867
ag2
(g6
S'"\x8f\x11Ks\xc6\xbc?'
p1317
tp1318
Rp1319
aa(lp1320
F-1.9332975199327818
ag2
(g6
S'\xc1v\xac\xdc\xbe\xe0\xbc?'
p1321
tp1322
Rp1323
aa(lp1324
F-1.86184199996821
ag2
(g6
S'\xb9,#\xd8\x14a\xbc?'
p1325
tp1326
Rp1327
aa(lp1328
F-1.970652385458628
ag2
(g6
S'\xc8\x0b\x14\xaa\xf9\x88\xbb?'
p1329
tp1330
Rp1331
aa(lp1332
F-2.015959578714446
ag2
(g6
S'\xe9vj\x10\x86>\xbb?'
p1333
tp1334
Rp1335
aa(lp1336
F-1.950448911340097
ag2
(g6
S'\xf7\x8a6\xb5\x8c\xaa\xba?'
p1337
tp1338
Rp1339
aa(lp1340
F-1.9439356610026104
ag2
(g6
S'tc\xcb`3c\xba?'
p1341
tp1342
Rp1343
aa(lp1344
F-2.105692100525848
ag2
(g6
S'\xd2\xe2\xf3#:\xe1\xba?'
p1345
tp1346
Rp1347
aa(lp1348
F-2.064339230732851
ag2
(g6
S'\x9d\x8a\xceW\xa6\xa3\xba?'
p1349
tp1350
Rp1351
aa(lp1352
F-1.8519209291267502
ag2
(g6
S'W\x17\xd9o;\xa5\xba?'
p1353
tp1354
Rp1355
aa(lp1356
F-2.095776505891063
ag2
(g6
S'\xf1\xe6K\xf4d/\xba?'
p1357
tp1358
Rp1359
aa(lp1360
F-1.9606527484298475
ag2
(g6
S'\xfa\xef\x9b\x11{9\xba?'
p1361
tp1362
Rp1363
aa(lp1364
F-1.9467456244393622
ag2
(g6
S')\xe5R\xec5\xec\xb9?'
p1365
tp1366
Rp1367
aa(lp1368
F-2.0562512805543225
ag2
(g6
S'q\r\xcd\xc1\xd8\x80\xb9?'
p1369
tp1370
Rp1371
aa(lp1372
F-1.9955157923506806
ag2
(g6
S'Y\x19g\x93\xe6\xcf\xb9?'
p1373
tp1374
Rp1375
aa(lp1376
F-1.8777258220612836
ag2
(g6
S'\x8b\xad\xca6-\xc5\xb9?'
p1377
tp1378
Rp1379
aa(lp1380
F-1.9846153386327519
ag2
(g6
S'\xd3\x0fS\xff\xdd\xb2\xb9?'
p1381
tp1382
Rp1383
aa(lp1384
F-1.965637479510842
ag2
(g6
S'|\x03\xdd\xde\xbd\x8b\xb9?'
p1385
tp1386
Rp1387
aa(lp1388
F-1.8983405804275744
ag2
(g6
S'\x8f\x7fNu\xa7E\xb9?'
p1389
tp1390
Rp1391
aa(lp1392
F-1.9280642675106763
ag2
(g6
S'\xfe\xee"\xe3\xfbM\xb9?'
p1393
tp1394
Rp1395
aa(lp1396
F-1.9122929441861007
ag2
(g6
S'\x92\xabM\xedY\xde\xb9?'
p1397
tp1398
Rp1399
aa(lp1400
F-2.0705521266461187
ag2
(g6
S'\xbf\xceg\xc2\xb3\x1c\xba?'
p1401
tp1402
Rp1403
aa(lp1404
F-1.919604049414706
ag2
(g6
S'\xb9kA\xd6\xfb\x10\xba?'
p1405
tp1406
Rp1407
aa(lp1408
F-1.9683935696260644
ag2
(g6
S'\x9e/\xb6\x16F\xc1\xb9?'
p1409
tp1410
Rp1411
aa(lp1412
F-2.0743764778448908
ag2
(g6
S'\x7fP\xd4i\xa1\xf2\xb9?'
p1413
tp1414
Rp1415
aa(lp1416
F-2.043305819133349
ag2
(g6
S'\xa0\x0e\x1b\xb5R\xda\xb9?'
p1417
tp1418
Rp1419
aa(lp1420
F-1.9561967000881604
ag2
(g6
S'\xa2\xca\x8ds?t\xb9?'
p1421
tp1422
Rp1423
aa(lp1424
F-1.9738110590067652
ag2
(g6
S'\xb2y\xbb;\xc8_\xb9?'
p1425
tp1426
Rp1427
aa(lp1428
F-2.007187102496035
ag2
(g6
S'!)\xdf\xfb\x12\xa8\xb9?'
p1429
tp1430
Rp1431
aa(lp1432
F-2.036305942462239
ag2
(g6
S'_\x15\x05kGB\xb9?'
p1433
tp1434
Rp1435
aa(lp1436
F-1.9467276743837574
ag2
(g6
S'\xe9\x0c\x0e\xa9Z\x8f\xb9?'
p1437
tp1438
Rp1439
aa(lp1440
F-1.9670206012296805
ag2
(g6
S'[\xc9\xe3\x03\xc7Y\xb9?'
p1441
tp1442
Rp1443
aa(lp1444
F-1.999361741162782
ag2
(g6
S"\xbb\x987\xe7\x0c'\xb9?"
p1445
tp1446
Rp1447
aa(lp1448
F-2.052986956809049
ag2
(g6
S'"\xa0\xf6\xabK\xdb\xb8?'
p1449
tp1450
Rp1451
aa(lp1452
F-2.0103557486517865
ag2
(g6
S'Y;\xc2N\x02\x15\xb9?'
p1453
tp1454
Rp1455
aa(lp1456
F-2.005271053642618
ag2
(g6
S'\xc9.\xf7}\xf09\xb9?'
p1457
tp1458
Rp1459
aa(lp1460
F-1.9932650101706606
ag2
(g6
S'\xd4fw\n\x180\xb9?'
p1461
tp1462
Rp1463
aa(lp1464
F-1.9162847410328434
ag2
(g6
S'P\xff\x0c\xbd1_\xb9?'
p1465
tp1466
Rp1467
aa(lp1468
F-1.9903518145909826
ag2
(g6
S'\xeb\xb4Tr\x9a\x8a\xb9?'
p1469
tp1470
Rp1471
aa(lp1472
F-1.9363054129763209
ag2
(g6
S'\x15\xfe\x7fU\xf8\xa7\xb9?'
p1473
tp1474
Rp1475
aa(lp1476
F-1.9542181110443184
ag2
(g6
S'\xa6\xa6%\x0c\xd1\x91\xb9?'
p1477
tp1478
Rp1479
aa(lp1480
F-2.0030211134757185
ag2
(g6
S"\xb6']\x98MU\xb9?"
p1481
tp1482
Rp1483
aa(lp1484
F-1.9584967663679063
ag2
(g6
S'\xeb%`\xbe\xb0$\xb9?'
p1485
tp1486
Rp1487
aa(lp1488
F-2.001231516135826
ag2
(g6
S']\x10\xab\xcb{\x9b\xb9?'
p1489
tp1490
Rp1491
aa(lp1492
F-1.9726444434314059
ag2
(g6
S'\xc1\xf9r\xde\x0e1\xb9?'
p1493
tp1494
Rp1495
aa(lp1496
F-1.9139342669003592
ag2
(g6
S'\xfa3|\xd8\x191\xb9?'
p1497
tp1498
Rp1499
aa(lp1500
F-1.9767330547304052
ag2
(g6
S'd\x0c7\x81\xb7\xed\xb8?'
p1501
tp1502
Rp1503
aa(lp1504
F-2.022434633843445
ag2
(g6
S'\xf8\x0c{E\x0c\xe0\xb8?'
p1505
tp1506
Rp1507
aa(lp1508
F-1.9754162365293255
ag2
(g6
S'\x98\x93\x01\ni\x8a\xb8?'
p1509
tp1510
Rp1511
aa(lp1512
F-2.00108509157133
ag2
(g6
S's\x80\xce\x9b#\xa7\xb8?'
p1513
tp1514
Rp1515
aa(lp1516
F-1.955534647506601
ag2
(g6
S'\x87*2<c\xdd\xb8?'
p1517
tp1518
Rp1519
aa(lp1520
F-2.0871506728457816
ag2
(g6
S'\xbc?2\x8a]\xc2\xb8?'
p1521
tp1522
Rp1523
aa(lp1524
F-2.0232112995238194
ag2
(g6
S'\x8c\xdc\x1cx\xde\xb1\xb8?'
p1525
tp1526
Rp1527
aa(lp1528
F-1.952474494546251
ag2
(g6
S'Bb\x16\xf3CP\xb8?'
p1529
tp1530
Rp1531
aa(lp1532
F-2.0038028216636796
ag2
(g6
S'\x10\xb5C\xc2u\xe8\xb7?'
p1533
tp1534
Rp1535
aa(lp1536
F-1.9102206069591807
ag2
(g6
S'9\xe2\xa7\x9fm\x12\xb8?'
p1537
tp1538
Rp1539
aa(lp1540
F-2.009141980021116
ag2
(g6
S'\xcd\xaaW\xa9\x80m\xb8?'
p1541
tp1542
Rp1543
aa(lp1544
F-2.0060770716048384
ag2
(g6
S'p\xbc[\r:$\xb8?'
p1545
tp1546
Rp1547
aa(lp1548
F-1.8883210670800576
ag2
(g6
S'\x1d\x84,\x8ba\t\xb8?'
p1549
tp1550
Rp1551
aa(lp1552
F-2.004442101017675
ag2
(g6
S'!\xa6\x99\xa8\t!\xb8?'
p1553
tp1554
Rp1555
aa(lp1556
F-1.9198733444698843
ag2
(g6
S'\x89s^\xd3\xe0\xb1\xb7?'
p1557
tp1558
Rp1559
aa(lp1560
F-1.9614492128555505
ag2
(g6
S'\xe4&8e\xb8\xdb\xb7?'
p1561
tp1562
Rp1563
aa(lp1564
F-1.9836440321617543
ag2
(g6
S'\x08\x1a\xaa\xc2Y\xa6\xb7?'
p1565
tp1566
Rp1567
aa(lp1568
F-1.995940544804234
ag2
(g6
S'\xcc\x1b#\x10\x87\xab\xb7?'
p1569
tp1570
Rp1571
aa(lp1572
F-2.0218565733446656
ag2
(g6
S'\t\xdf\xae\x97\x0f\x02\xb8?'
p1573
tp1574
Rp1575
aa(lp1576
F-2.0700571706449113
ag2
(g6
S'=\xe1\xd9\xf6\xb3\x03\xb8?'
p1577
tp1578
Rp1579
aa(lp1580
F-2.0539256208902223
ag2
(g6
S'H\xfd\x84\xcc\xe3l\xb7?'
p1581
tp1582
Rp1583
aa(lp1584
F-1.9517475405708948
ag2
(g6
S'D\xfc\xa9\x16(\x13\xb8?'
p1585
tp1586
Rp1587
aa(lp1588
F-1.8894677976092402
ag2
(g6
S'\x04\x85A\x9a\x15j\xb7?'
p1589
tp1590
Rp1591
aa(lp1592
F-2.0176092853164844
ag2
(g6
S'\xcc3\xc5\x1a\xf79\xb7?'
p1593
tp1594
Rp1595
aa(lp1596
F-1.9772626293927211
ag2
(g6
S"'E\xb0\xdd\xab\xf8\xb6?"
p1597
tp1598
Rp1599
aa(lp1600
F-2.0304221948708214
ag2
(g6
S'\xc7>X\xac\xea\xf8\xb6?'
p1601
tp1602
Rp1603
aa(lp1604
F-2.052955227276972
ag2
(g6
S'\x17\x89\x90\xf1\xa1\x1d\xb7?'
p1605
tp1606
Rp1607
aa(lp1608
F-2.034407374035487
ag2
(g6
S'8\x9b\xfb\x84\x19}\xb7?'
p1609
tp1610
Rp1611
aa(lp1612
F-1.9917567926473108
ag2
(g6
S'f\xf6\x91\xa4\xcfG\xb7?'
p1613
tp1614
Rp1615
aa(lp1616
F-1.927217514296356
ag2
(g6
S'b\xd5\xd2\x8c\xc7z\xb7?'
p1617
tp1618
Rp1619
aa(lp1620
F-2.0093435040327825
ag2
(g6
S'\xb2b\xd5\xae\xe7\xeb\xb6?'
p1621
tp1622
Rp1623
aa(lp1624
F-2.037192835005524
ag2
(g6
S'\xb4\xa8\xbd(\x1f\xf2\xb6?'
p1625
tp1626
Rp1627
aa(lp1628
F-2.0268911274029833
ag2
(g6
S'9\r\x18P9\xf4\xb6?'
p1629
tp1630
Rp1631
aa(lp1632
F-2.002183178262656
ag2
(g6
S'\xa8Q&$\xa2\xa0\xb6?'
p1633
tp1634
Rp1635
aa(lp1636
F-1.9676191453880758
ag2
(g6
S':\x85\xe3\x9e\xa0\xd9\xb6?'
p1637
tp1638
Rp1639
aa(lp1640
F-1.9631365180251175
ag2
(g6
S'\xa9r\x8e!\xc3\x9e\xb6?'
p1641
tp1642
Rp1643
aa(lp1644
F-1.9220838494549042
ag2
(g6
S'\xaa\xec\xc12\xfa\xb9\xb6?'
p1645
tp1646
Rp1647
aa(lp1648
F-1.983543751219304
ag2
(g6
S' \xec\xd1$\xb9\x9f\xb6?'
p1649
tp1650
Rp1651
aa(lp1652
F-2.1112324487699565
ag2
(g6
S'\xfa\xb3YU\t\xd3\xb6?'
p1653
tp1654
Rp1655
aa(lp1656
F-2.040590628517714
ag2
(g6
S'C.T\xee\xf0\xc3\xb6?'
p1657
tp1658
Rp1659
aa(lp1660
F-1.9952895291468744
ag2
(g6
S'\xe3{D\x1f\x8e$\xb7?'
p1661
tp1662
Rp1663
aa(lp1664
F-2.050235948569728
ag2
(g6
S'\xa8N^\xc4\xf9\x1e\xb7?'
p1665
tp1666
Rp1667
aa(lp1668
F-2.0899338048568876
ag2
(g6
S'\x02V\t\xe8\xd2^\xb7?'
p1669
tp1670
Rp1671
aa(lp1672
F-2.0376163285466498
ag2
(g6
S'\xac\x13\x06\xb3\x86\x10\xb7?'
p1673
tp1674
Rp1675
aa(lp1676
F-1.9296946580093457
ag2
(g6
S'$l\xae\x92$\\\xb7?'
p1677
tp1678
Rp1679
aa(lp1680
F-1.9581757978713823
ag2
(g6
S'\x87)\x98t\xc0\x80\xb7?'
p1681
tp1682
Rp1683
aa(lp1684
F-2.0151444349491285
ag2
(g6
S'\xd5\x14u.-R\xb7?'
p1685
tp1686
Rp1687
aa(lp1688
F-1.9662491942882254
ag2
(g6
S'0\x110}\xff]\xb7?'
p1689
tp1690
Rp1691
aa(lp1692
F-2.053860214511909
ag2
(g6
S'\x04\x12F\x10\x9a7\xb7?'
p1693
tp1694
Rp1695
aa(lp1696
F-2.0707244823043363
ag2
(g6
S'JA\x990n\xa9\xb6?'
p1697
tp1698
Rp1699
aa(lp1700
F-1.9811092236645897
ag2
(g6
S'\x08L\xeb\x0b}\xcf\xb6?'
p1701
tp1702
Rp1703
aa(lp1704
F-1.9880325594159842
ag2
(g6
S'2\xc7\x84T\xdbi\xb6?'
p1705
tp1706
Rp1707
aa(lp1708
F-2.0077351593281807
ag2
(g6
S'z\xeeF\xb0\xbfl\xb6?'
p1709
tp1710
Rp1711
aa(lp1712
F-1.9805996226856863
ag2
(g6
S'H\xf3\x92\xdf6\x97\xb6?'
p1713
tp1714
Rp1715
aa(lp1716
F-2.016244799018563
ag2
(g6
S'\x86I\xb2\x92\xe2K\xb6?'
p1717
tp1718
Rp1719
aa(lp1720
F-2.0187072833509463
ag2
(g6
S'I\x1fv\xc7\tW\xb6?'
p1721
tp1722
Rp1723
aa(lp1724
F-2.072506894956147
ag2
(g6
S'\xc0\xa9!U\xc9\xcc\xb5?'
p1725
tp1726
Rp1727
aa(lp1728
F-2.059790703380246
ag2
(g6
S'\x06Q;\xc6(\xc4\xb5?'
p1729
tp1730
Rp1731
aa(lp1732
F-1.9905046848547479
ag2
(g6
S'w\xb3\xff\xc3\x16\xec\xb5?'
p1733
tp1734
Rp1735
aa(lp1736
F-1.9623032684090251
ag2
(g6
S'w\xf1\xf4\x97\xbd\xe9\xb5?'
p1737
tp1738
Rp1739
aa(lp1740
F-2.1425383629583235
ag2
(g6
S'J\x85\xda\xbb\xcc\xe9\xb5?'
p1741
tp1742
Rp1743
aa(lp1744
F-1.9166418009738033
ag2
(g6
S'\xaf\x01V\xc8\x87q\xb5?'
p1745
tp1746
Rp1747
aa(lp1748
F-2.014374445118379
ag2
(g6
S'\xb0\xd46{z\xb0\xb5?'
p1749
tp1750
Rp1751
aa(lp1752
F-2.0094291728194147
ag2
(g6
S'P\xda\xa2\x82\\\x8a\xb5?'
p1753
tp1754
Rp1755
aa(lp1756
F-1.9339534267507112
ag2
(g6
S'\xe01\xc5\xb9\xde\xce\xb5?'
p1757
tp1758
Rp1759
aa(lp1760
F-2.070571074837836
ag2
(g6
S'\xa6\xc7\xdco\x87\x7f\xb5?'
p1761
tp1762
Rp1763
aa(lp1764
F-1.9981885746626282
ag2
(g6
S'L\x1d\xff\x1fI\xd0\xb5?'
p1765
tp1766
Rp1767
aa(lp1768
F-1.9738049978110581
ag2
(g6
S'\x1d\xe1L)\x0f\xe9\xb5?'
p1769
tp1770
Rp1771
aa(lp1772
F-1.9645558273962107
ag2
(g6
S'V\xcd\x15\x1bQ\xdc\xb5?'
p1773
tp1774
Rp1775
aa(lp1776
F-2.010080085183738
ag2
(g6
S'c\xae\x19\x83r\x1b\xb6?'
p1777
tp1778
Rp1779
aa(lp1780
F-2.1124354400062573
ag2
(g6
S'\x86,\xd3\x91%\xd6\xb5?'
p1781
tp1782
Rp1783
aa(lp1784
F-1.9823417911186734
ag2
(g6
S'\xd1\xf6#\x92\n\xd6\xb5?'
p1785
tp1786
Rp1787
aa(lp1788
F-1.9834662584929876
ag2
(g6
S'\tk\x96\xa3V\xf1\xb5?'
p1789
tp1790
Rp1791
aa(lp1792
F-2.0295532015540356
ag2
(g6
S'\x9d \x1c\xec\xc0\xb9\xb5?'
p1793
tp1794
Rp1795
aa(lp1796
F-2.025453333350136
ag2
(g6
S'\xbbSG\xdc\xd7\xc8\xb5?'
p1797
tp1798
Rp1799
aa(lp1800
F-1.9836675614143304
ag2
(g6
S'5\xcfH\xfb\x04\xe5\xb5?'
p1801
tp1802
Rp1803
aa(lp1804
F-2.016277914562847
ag2
(g6
S'\x01\x0el\xee\x8e\x8b\xb5?'
p1805
tp1806
Rp1807
aa(lp1808
F-2.0445916609471455
ag2
(g6
S'=\xc9\xc0\x9c\x90\xa2\xb5?'
p1809
tp1810
Rp1811
aa(lp1812
F-1.9938356678799303
ag2
(g6
S'\xf2\x06O\xa1qj\xb6?'
p1813
tp1814
Rp1815
aa(lp1816
F-1.9675872385621098
ag2
(g6
S'\xc4IY\x0b\xdf\n\xb7?'
p1817
tp1818
Rp1819
aa(lp1820
F-1.9807433951308506
ag2
(g6
S'\xe1\xdb\xde\xfa\xfd\xd5\xb6?'
p1821
tp1822
Rp1823
aa(lp1824
F-1.9498767175534906
ag2
(g6
S'\xbd\x83\x10\xa0\x1c\x86\xb6?'
p1825
tp1826
Rp1827
aa(lp1828
F-2.074751579907425
ag2
(g6
S'*EE\xba\xc1\x7f\xb6?'
p1829
tp1830
Rp1831
aa(lp1832
F-2.069272014509152
ag2
(g6
S'N\xfa\x90\xd6\xbbp\xb6?'
p1833
tp1834
Rp1835
aa(lp1836
F-2.0688475281880754
ag2
(g6
S',\x0c\xa0s(\xe2\xb5?'
p1837
tp1838
Rp1839
aa(lp1840
F-2.0286138256015276
ag2
(g6
S'a\xe8\xfeYl8\xb6?'
p1841
tp1842
Rp1843
aa(lp1844
F-2.0278325501328895
ag2
(g6
S'\x83\xd8iYKw\xb6?'
p1845
tp1846
Rp1847
aa(lp1848
F-2.026690152390639
ag2
(g6
S'\x95\xbc\xe8\x1e9\xdc\xb6?'
p1849
tp1850
Rp1851
aa(lp1852
F-2.0104387368022527
ag2
(g6
S'*\x80\xddc\xc6\x1b\xb6?'
p1853
tp1854
Rp1855
aa(lp1856
F-2.0262787032070677
ag2
(g6
S'\x86\x13NikR\xb6?'
p1857
tp1858
Rp1859
aa(lp1860
F-1.9982787423199255
ag2
(g6
S',\xfd\xcae\xc1\xab\xb6?'
p1861
tp1862
Rp1863
aa(lp1864
F-2.0098346853964144
ag2
(g6
S'"\xac\xe2\xe6\xb6\xb7\xb6?'
p1865
tp1866
Rp1867
aa(lp1868
F-2.046242788553268
ag2
(g6
S'\xd9~\x97V\xa7\xd3\xb6?'
p1869
tp1870
Rp1871
aa(lp1872
F-1.9922777907121145
ag2
(g6
S'\x86\xc2\xb5O\xd6\xb7\xb6?'
p1873
tp1874
Rp1875
aa(lp1876
F-2.001861145319918
ag2
(g6
S'b\x1b&\xbe\x14P\xb6?'
p1877
tp1878
Rp1879
aa(lp1880
F-2.0594372315904397
ag2
(g6
S'\x1a\xf5\xd8\xec\xcf\xf2\xb5?'
p1881
tp1882
Rp1883
aa(lp1884
F-2.010694459803311
ag2
(g6
S'\xfd]\x98\xce\x86\xee\xb5?'
p1885
tp1886
Rp1887
aa(lp1888
F-2.1021335203432514
ag2
(g6
S'\xfb\\\xfbrH\xb7\xb5?'
p1889
tp1890
Rp1891
aa(lp1892
F-2.067759808392207
ag2
(g6
S'Rj7v\xe1b\xb5?'
p1893
tp1894
Rp1895
aa(lp1896
F-2.030584671014703
ag2
(g6
S'v\xd4\x16\x9f\xcaW\xb5?'
p1897
tp1898
Rp1899
aa(lp1900
F-2.0425234330772226
ag2
(g6
S'&\xdc\x14\xe2Q\xfe\xb4?'
p1901
tp1902
Rp1903
aa(lp1904
F-2.081807965821494
ag2
(g6
S'0\xf5\xc7_nx\xb5?'
p1905
tp1906
Rp1907
aa(lp1908
F-2.030273830738228
ag2
(g6
S'\xef4\xf70\xf6E\xb5?'
p1909
tp1910
Rp1911
aa(lp1912
F-2.027121236522862
ag2
(g6
S'\xdc\x9dq\xaa\xca\xa3\xb5?'
p1913
tp1914
Rp1915
aa(lp1916
F-2.016760116258561
ag2
(g6
S'g\xdd[d2h\xb5?'
p1917
tp1918
Rp1919
aa(lp1920
F-2.025054977799544
ag2
(g6
S'G9\xb3BSi\xb5?'
p1921
tp1922
Rp1923
aa(lp1924
F-1.994769666360588
ag2
(g6
S'\xf78$\xdeR\x92\xb5?'
p1925
tp1926
Rp1927
aa(lp1928
F-1.9684932885353883
ag2
(g6
S'\x9d\\\xd6\x1b\xee{\xb5?'
p1929
tp1930
Rp1931
aa(lp1932
F-2.018935705982281
ag2
(g6
S'GZ\xfe\xf4\xe3[\xb5?'
p1933
tp1934
Rp1935
aa(lp1936
F-1.99567781073249
ag2
(g6
S'\xb2\x12\x1c\x1c\x00u\xb5?'
p1937
tp1938
Rp1939
aa(lp1940
F-2.0432112758175727
ag2
(g6
S'\x12\xe7{\xbe[:\xb5?'
p1941
tp1942
Rp1943
aa(lp1944
F-2.0254131666273802
ag2
(g6
S'\xb2\xf8\xf4\xe4C\x9e\xb5?'
p1945
tp1946
Rp1947
aa(lp1948
F-1.904980313154
ag2
(g6
S'\x9f$\x17_r\xa8\xb5?'
p1949
tp1950
Rp1951
aa(lp1952
F-1.9532182440320305
ag2
(g6
S'\xa2\xa5(E\x0f\x9f\xb5?'
p1953
tp1954
Rp1955
aa(lp1956
F-2.022264742866504
ag2
(g6
S'\x11\x1f\x8a^\x9b#\xb5?'
p1957
tp1958
Rp1959
aa(lp1960
F-2.0195044032485496
ag2
(g6
S'\xfei\x1b\xc0\xc6%\xb5?'
p1961
tp1962
Rp1963
aa(lp1964
F-2.0243967858178364
ag2
(g6
S'\x10\xa7p\x14\x13\x88\xb5?'
p1965
tp1966
Rp1967
aa(lp1968
F-2.0133841618407384
ag2
(g6
S'\x03\xf9H\xfc\x8ak\xb5?'
p1969
tp1970
Rp1971
aa(lp1972
F-2.0315493732499204
ag2
(g6
S'Q7\xda\x91\xa3a\xb5?'
p1973
tp1974
Rp1975
aa(lp1976
F-2.0746530961837255
ag2
(g6
S'\x1f!^\xbcI\xf2\xb4?'
p1977
tp1978
Rp1979
aa(lp1980
F-2.062606551846984
ag2
(g6
S'\xf7f\xae\xd4>\xef\xb4?'
p1981
tp1982
Rp1983
aa(lp1984
F-2.0247968130962297
ag2
(g6
S'E\xed%\xca\xe7\x9c\xb4?'
p1985
tp1986
Rp1987
aa(lp1988
F-2.045795398725428
ag2
(g6
S'\xe0h\xaf3\x1a\xae\xb4?'
p1989
tp1990
Rp1991
aa(lp1992
F-2.0693213820908376
ag2
(g6
S"h\x93\x0f\x1d'\x8e\xb4?"
p1993
tp1994
Rp1995
aa(lp1996
F-2.02566929961319
ag2
(g6
S'\x0e\xb3\xbb\xeb\x1cx\xb4?'
p1997
tp1998
Rp1999
aa(lp2000
F-1.9666670871737266
ag2
(g6
S'\xfaK\x1e\x89\xbc`\xb4?'
p2001
tp2002
Rp2003
aa(lp2004
F-2.0460494879926996
ag2
(g6
S'\x15\x95\x0f\x82\x93\x90\xb4?'
p2005
tp2006
Rp2007
aa(lp2008
F-2.1212732129357894
ag2
(g6
S'\x87\xf4\xe7\x91\x01\xee\xb4?'
p2009
tp2010
Rp2011
aa(lp2012
F-1.9825091049569732
ag2
(g6
S'l\x89\xbb\xb8\xc1\x12\xb5?'
p2013
tp2014
Rp2015
aa(lp2016
F-2.009925051353023
ag2
(g6
S'C\xaf\xa9X\xc4\xe4\xb4?'
p2017
tp2018
Rp2019
aa(lp2020
F-2.0254358341692824
ag2
(g6
S'<\x12\xb5\xa5n\x07\xb5?'
p2021
tp2022
Rp2023
aa(lp2024
F-2.056942489552311
ag2
(g6
S'\x13F)\xe0\xe12\xb5?'
p2025
tp2026
Rp2027
aa(lp2028
F-2.0034575898944644
ag2
(g6
S'$\x7f\xb9.f\xa3\xb5?'
p2029
tp2030
Rp2031
aa(lp2032
F-2.008674244059929
ag2
(g6
S'\xe3\x8c\x9dE\x1f\xb0\xb5?'
p2033
tp2034
Rp2035
aa(lp2036
F-1.995318299900994
ag2
(g6
S'\x8e\xa6N@\x8d\xf4\xb5?'
p2037
tp2038
Rp2039
aa(lp2040
F-2.042167721898012
ag2
(g6
S'\x02\x90TKB\xf6\xb5?'
p2041
tp2042
Rp2043
aa(lp2044
F-2.1296620497216185
ag2
(g6
S'\x1b\x1b*3\x1c7\xb6?'
p2045
tp2046
Rp2047
aa(lp2048
F-2.081430912928004
ag2
(g6
S'\xc2]\x1b|\xfa\x15\xb6?'
p2049
tp2050
Rp2051
aa(lp2052
F-1.9932567574037028
ag2
(g6
S'h\xe0Ic:\xce\xb5?'
p2053
tp2054
Rp2055
aa(lp2056
F-2.023652768322628
ag2
(g6
S'?\xe7\x9d\x00\xe7\xbd\xb5?'
p2057
tp2058
Rp2059
aa(lp2060
F-2.054811625122151
ag2
(g6
S'\x96\xc0f\xeb\xdf\xbe\xb5?'
p2061
tp2062
Rp2063
aa(lp2064
F-2.037219838520609
ag2
(g6
S'^2X\xcc\x1d\xf4\xb5?'
p2065
tp2066
Rp2067
aa(lp2068
F-2.143537632142965
ag2
(g6
S'\x93\xb0\x87\xaa&\x00\xb6?'
p2069
tp2070
Rp2071
aa(lp2072
F-2.010278382548592
ag2
(g6
S':\xb0U\x9f\xfbT\xb6?'
p2073
tp2074
Rp2075
aa(lp2076
F-2.0418499810736415
ag2
(g6
S'.\x0fqz\xd56\xb6?'
p2077
tp2078
Rp2079
aa(lp2080
F-2.012028857858946
ag2
(g6
S'\xa7\xaddo \xfd\xb5?'
p2081
tp2082
Rp2083
aa(lp2084
F-2.0104430390842967
ag2
(g6
S'\xdb3tq3\x1a\xb6?'
p2085
tp2086
Rp2087
aa(lp2088
F-2.0082747474161473
ag2
(g6
S'\xd6{b\xde\x1d:\xb6?'
p2089
tp2090
Rp2091
aa(lp2092
F-2.0490408132006737
ag2
(g6
S'\x80\xc4z\xd9\xb7\x8f\xb6?'
p2093
tp2094
Rp2095
aa(lp2096
F-2.1121680422841194
ag2
(g6
S'm\x05\xb2tv\xcd\xb6?'
p2097
tp2098
Rp2099
aa(lp2100
F-1.9258820043759983
ag2
(g6
S'\xee\xad-1F\x12\xb7?'
p2101
tp2102
Rp2103
aa(lp2104
F-1.9637886358401944
ag2
(g6
S'0(\xa6S,!\xb7?'
p2105
tp2106
Rp2107
aa(lp2108
F-2.0872441931332713
ag2
(g6
S'\x83\xb4p\xa3\x07\x1b\xb7?'
p2109
tp2110
Rp2111
aa(lp2112
F-2.0131814849123773
ag2
(g6
S'W\xa8\x0f75\xd4\xb6?'
p2113
tp2114
Rp2115
aa(lp2116
F-1.9551710134959706
ag2
(g6
S'B\xceg\xea\xc9\xd4\xb6?'
p2117
tp2118
Rp2119
aa(lp2120
F-2.0301906277486417
ag2
(g6
S'XA{C\\g\xb6?'
p2121
tp2122
Rp2123
aa(lp2124
F-1.9475908539691684
ag2
(g6
S'\x80\xfed\xc9\xf3\x84\xb6?'
p2125
tp2126
Rp2127
aa(lp2128
F-1.9640125404166409
ag2
(g6
S'S\tI-+~\xb6?'
p2129
tp2130
Rp2131
aa(lp2132
F-2.0418697318580974
ag2
(g6
S'f\xc5\xf9G\xde\xae\xb6?'
p2133
tp2134
Rp2135
aa(lp2136
F-1.96492901979412
ag2
(g6
S'\x9b\xf5\x170\xfc\x9e\xb6?'
p2137
tp2138
Rp2139
aa(lp2140
F-2.0050132053348704
ag2
(g6
S'\xf9)v]C\xd3\xb6?'
p2141
tp2142
Rp2143
aa(lp2144
F-2.0355703451610863
ag2
(g6
S'\x9e\xb6\xe8\xfc\x85\x1a\xb7?'
p2145
tp2146
Rp2147
aa(lp2148
F-2.008654443463655
ag2
(g6
S'\x01\xe8Z`\xb1\xc4\xb6?'
p2149
tp2150
Rp2151
aa(lp2152
F-2.0416964000607405
ag2
(g6
S'Z\x99\xac\x97.Z\xb6?'
p2153
tp2154
Rp2155
aa(lp2156
F-1.9747056603141668
ag2
(g6
S'\xfb\x15}JB\xdc\xb6?'
p2157
tp2158
Rp2159
aa(lp2160
F-1.975509930455475
ag2
(g6
S'y\xd6\xfe\xad\xaa\x90\xb6?'
p2161
tp2162
Rp2163
aa(lp2164
F-2.059584315796352
ag2
(g6
S'r\n/P\xe99\xb6?'
p2165
tp2166
Rp2167
aa(lp2168
F-2.048936978537722
ag2
(g6
S'\x7f\xd8}\xd7\xcc\xca\xb6?'
p2169
tp2170
Rp2171
aa(lp2172
F-1.9685424630047432
ag2
(g6
S'\xbf\x873\x15\xd6\xd2\xb6?'
p2173
tp2174
Rp2175
aa(lp2176
F-2.0193447064028778
ag2
(g6
S'\xff\x1eBH\x83.\xb6?'
p2177
tp2178
Rp2179
aa(lp2180
F-1.9695655264651728
ag2
(g6
S'-\xe18\x9c1[\xb6?'
p2181
tp2182
Rp2183
aa(lp2184
F-2.0561271105548076
ag2
(g6
S'\xdb\xb7 \x06\xaa*\xb6?'
p2185
tp2186
Rp2187
aa(lp2188
F-2.0006407379458637
ag2
(g6
S'\xe2KE\\N\x8c\xb6?'
p2189
tp2190
Rp2191
aa(lp2192
F-1.9846410840964959
ag2
(g6
S'\xf0E\n\xbc4\xea\xb6?'
p2193
tp2194
Rp2195
aa(lp2196
F-2.070647234666705
ag2
(g6
S'\x1c\xac\x08\xd2\xdfs\xb6?'
p2197
tp2198
Rp2199
aa(lp2200
F-2.110821234002619
ag2
(g6
S'\x00\x06\x85\x07\xf0\xb7\xb6?'
p2201
tp2202
Rp2203
aa(lp2204
F-2.0769718457357293
ag2
(g6
S'\x94\xab\xcb!x\x8e\xb6?'
p2205
tp2206
Rp2207
aa(lp2208
F-2.063795999351133
ag2
(g6
S'\x90\n\xc5\x832\x8d\xb6?'
p2209
tp2210
Rp2211
aa(lp2212
F-2.089440544789525
ag2
(g6
S'\xa8LcdEe\xb6?'
p2213
tp2214
Rp2215
aa(lp2216
F-1.9368614561800188
ag2
(g6
S'\x14|\xd9\xa6\xbd\xd2\xb6?'
p2217
tp2218
Rp2219
aa(lp2220
F-1.9666612333420046
ag2
(g6
S'\xa3\xf1\x82\xfe\xca\x12\xb7?'
p2221
tp2222
Rp2223
aa(lp2224
F-2.1198639167757207
ag2
(g6
S'\x06\xeb\xdbc\xe0\xde\xb6?'
p2225
tp2226
Rp2227
aa(lp2228
F-1.9515836023107747
ag2
(g6
S'\x11V\x84\x95\xf8\xd5\xb6?'
p2229
tp2230
Rp2231
aa(lp2232
F-1.99003885876319
ag2
(g6
S'\xe7F:\xbf\xa8\xa8\xb6?'
p2233
tp2234
Rp2235
aa(lp2236
F-2.0006139412480506
ag2
(g6
S'\xf8\xf6\xa6\x95\x98\xa9\xb6?'
p2237
tp2238
Rp2239
aa(lp2240
F-1.986821970386112
ag2
(g6
S'\xb3\xd5|x\x81\xb7\xb6?'
p2241
tp2242
Rp2243
aa(lp2244
F-1.9678855804324271
ag2
(g6
S'\xe0\x91\xb6\xc93q\xb6?'
p2245
tp2246
Rp2247
aa(lp2248
F-1.983639046593584
ag2
(g6
S'\xce\xf9{\x16_s\xb6?'
p2249
tp2250
Rp2251
aa(lp2252
F-2.01637180166792
ag2
(g6
S'v=\xcbf\\\xc2\xb6?'
p2253
tp2254
Rp2255
aa(lp2256
F-2.039921002368088
ag2
(g6
S'\x1b\xdb@&\xb0v\xb6?'
p2257
tp2258
Rp2259
aa(lp2260
F-2.119590424908021
ag2
(g6
S'\xfd&\xd3b\xf8$\xb6?'
p2261
tp2262
Rp2263
aa(lp2264
F-2.1206119978987736
ag2
(g6
S'x\x91\x10\xe7n\xc4\xb5?'
p2265
tp2266
Rp2267
aa(lp2268
F-2.065723235744084
ag2
(g6
S'\xca\xfc\x16\xae1\xc4\xb5?'
p2269
tp2270
Rp2271
aa(lp2272
F-2.1488319317463387
ag2
(g6
S'\xda\x82m\xf3\x92\xad\xb5?'
p2273
tp2274
Rp2275
aa(lp2276
F-2.0153650220825523
ag2
(g6
S'w7`\xb2\x07\\\xb5?'
p2277
tp2278
Rp2279
aa(lp2280
F-2.056035903184182
ag2
(g6
S'\xb8Rq\x1d\xcdj\xb5?'
p2281
tp2282
Rp2283
aa(lp2284
F-2.0226296528490226
ag2
(g6
S'\\\x885\x08\x84\xac\xb5?'
p2285
tp2286
Rp2287
aa(lp2288
F-1.9722781331665746
ag2
(g6
S'\x1fd\x02o\xef\x9e\xb5?'
p2289
tp2290
Rp2291
aa(lp2292
F-1.9837806327155587
ag2
(g6
S'\x13\xb0eS\xdb\xb9\xb5?'
p2293
tp2294
Rp2295
aa(lp2296
F-1.9651026820428255
ag2
(g6
S'\x15?\xa1\xebe\x8e\xb5?'
p2297
tp2298
Rp2299
aa(lp2300
F-1.9634443507043986
ag2
(g6
S'\xbe\x98\xdd\xd5S\x80\xb5?'
p2301
tp2302
Rp2303
aa(lp2304
F-2.0581419877567027
ag2
(g6
S"\r}'>\xf4x\xb5?"
p2305
tp2306
Rp2307
aa(lp2308
F-1.9899901926486794
ag2
(g6
S'\x82w\x02\xaf\xdc\xad\xb5?'
p2309
tp2310
Rp2311
aa(lp2312
F-1.9582054355879102
ag2
(g6
S'\xae\xf4\xe0*\xbf\xcd\xb5?'
p2313
tp2314
Rp2315
aa(lp2316
F-2.0049899441947963
ag2
(g6
S'\x10\xe4\x94\xad`\x8a\xb5?'
p2317
tp2318
Rp2319
aa(lp2320
F-2.0740356795072112
ag2
(g6
S'2\xc6~B_\x90\xb5?'
p2321
tp2322
Rp2323
aa(lp2324
F-1.946108420751409
ag2
(g6
S'\x9b_\xdb\x19\x9a\xc5\xb5?'
p2325
tp2326
Rp2327
aa(lp2328
F-2.095525386851431
ag2
(g6
S'7\xe3}\xaee\xd8\xb5?'
p2329
tp2330
Rp2331
aa(lp2332
F-2.178134714142432
ag2
(g6
S'\x00\xee\x1c\xb4\x16&\xb6?'
p2333
tp2334
Rp2335
aa(lp2336
F-2.137301552446642
ag2
(g6
S'\xa3\xc8\n\xc1{\xfa\xb5?'
p2337
tp2338
Rp2339
aa(lp2340
F-2.0215478866595165
ag2
(g6
S'\xb7<.\xbdP\x05\xb6?'
p2341
tp2342
Rp2343
aa(lp2344
F-1.9512513102022409
ag2
(g6
S'\x18T\x0ewy2\xb6?'
p2345
tp2346
Rp2347
aa(lp2348
F-2.0108654142215485
ag2
(g6
S'\xaa\xb1\xe1B\x9e%\xb6?'
p2349
tp2350
Rp2351
aa(lp2352
F-2.0063204024626224
ag2
(g6
S'\x07\x80d!\xfc\x1a\xb6?'
p2353
tp2354
Rp2355
aa(lp2356
F-2.0175130856230483
ag2
(g6
S'\xb2\xaa \xf5\x00,\xb6?'
p2357
tp2358
Rp2359
aa(lp2360
F-1.9384319382993058
ag2
(g6
S'\xbb\x06$\x8b\xf9\xdc\xb5?'
p2361
tp2362
Rp2363
aa(lp2364
F-2.0540337708296854
ag2
(g6
S'\xe1\xd9\xd7\x9aQ\xc2\xb5?'
p2365
tp2366
Rp2367
aa(lp2368
F-1.9740121173712455
ag2
(g6
S'\xbd\xde1\xfb\x99\x8c\xb5?'
p2369
tp2370
Rp2371
aa(lp2372
F-1.9371810842302783
ag2
(g6
S'\xe10\x8f\x14}\xe6\xb5?'
p2373
tp2374
Rp2375
aa(lp2376
F-1.9050739362971096
ag2
(g6
S'B-I\x03@@\xb6?'
p2377
tp2378
Rp2379
aa(lp2380
F-2.0888675385428868
ag2
(g6
S'\xbaL/)\xb99\xb6?'
p2381
tp2382
Rp2383
aa(lp2384
F-1.9696573282016345
ag2
(g6
S'S\xd5\xc3\xcf\xb1\x82\xb6?'
p2385
tp2386
Rp2387
aa(lp2388
F-2.0931687390628966
ag2
(g6
S'\xc4\x01M\xa3\xd3A\xb6?'
p2389
tp2390
Rp2391
aa(lp2392
F-2.044554939798404
ag2
(g6
S'\xa47\xe2d{5\xb6?'
p2393
tp2394
Rp2395
aa(lp2396
F-1.970865539982721
ag2
(g6
S'/M\xe2\xf7\x0f\xa5\xb6?'
p2397
tp2398
Rp2399
aa(lp2400
F-2.044953067351788
ag2
(g6
S'\xaf\xf4(\xed\xeeR\xb6?'
p2401
tp2402
Rp2403
aa(lp2404
F-2.0661289854207885
ag2
(g6
S'D\xeb\xc9\x1c\xac\xf0\xb5?'
p2405
tp2406
Rp2407
aa(lp2408
F-1.9964177070234936
ag2
(g6
S'o\x9c\xbb\x81\xe8\xfb\xb5?'
p2409
tp2410
Rp2411
aa(lp2412
F-2.0150939335099753
ag2
(g6
S'\x82\x11\x06t\xedg\xb5?'
p2413
tp2414
Rp2415
aa(lp2416
F-2.0191566268244743
ag2
(g6
S'\xc8\x00\xfa\xaf\x03\x9a\xb5?'
p2417
tp2418
Rp2419
aa(lp2420
F-1.9908876948576808
ag2
(g6
S'Mm\xa3\xbe\x99E\xb5?'
p2421
tp2422
Rp2423
aa(lp2424
F-2.0381213397065805
ag2
(g6
S'\xb9\x82&Au\xea\xb5?'
p2425
tp2426
Rp2427
aa(lp2428
F-2.0379953746661363
ag2
(g6
S'\xa8v.\x96\xe4\x01\xb6?'
p2429
tp2430
Rp2431
aa(lp2432
F-1.9580716947834376
ag2
(g6
S'g\xca\x8a\x99D)\xb6?'
p2433
tp2434
Rp2435
aa(lp2436
F-1.9529739255289273
ag2
(g6
S'|\xb3\x91\x0cr\xdc\xb5?'
p2437
tp2438
Rp2439
aa(lp2440
F-2.0698469983992323
ag2
(g6
S'4k\xeblA\xd8\xb5?'
p2441
tp2442
Rp2443
aa(lp2444
F-2.059293058834487
ag2
(g6
S'\x06R\xc0\xeb\x86\xcc\xb5?'
p2445
tp2446
Rp2447
aa(lp2448
F-2.1133507257575754
ag2
(g6
S'\xf5\xcb\xe0?\x93\xbf\xb5?'
p2449
tp2450
Rp2451
aa(lp2452
F-2.0455266772698684
ag2
(g6
S'9\xe0\xbf\x0f\xe9m\xb5?'
p2453
tp2454
Rp2455
aa(lp2456
F-2.05259487412584
ag2
(g6
S'\x8a\xe2T\xb4\x17w\xb5?'
p2457
tp2458
Rp2459
aa(lp2460
F-2.0833259775484714
ag2
(g6
S'{r?7\xd2O\xb5?'
p2461
tp2462
Rp2463
aa(lp2464
F-2.0580149312761415
ag2
(g6
S'\\\x1da\x1aUO\xb5?'
p2465
tp2466
Rp2467
aa(lp2468
F-2.093072402701524
ag2
(g6
S'\x15h\xb8\xa8@q\xb5?'
p2469
tp2470
Rp2471
aa(lp2472
F-2.019542826916514
ag2
(g6
S'\x08\x05NK\xb6X\xb5?'
p2473
tp2474
Rp2475
aa(lp2476
F-2.021282606487729
ag2
(g6
S'0\x8e\xe1\xb6>$\xb5?'
p2477
tp2478
Rp2479
aa(lp2480
F-2.0437251576247357
ag2
(g6
S'z\xbc4\xe5\x80U\xb5?'
p2481
tp2482
Rp2483
aa(lp2484
F-2.0097180176030043
ag2
(g6
S'}\x981VRi\xb5?'
p2485
tp2486
Rp2487
aa(lp2488
F-2.0183411238515916
ag2
(g6
S'$C$3N\x7f\xb5?'
p2489
tp2490
Rp2491
aa(lp2492
F-1.9310818660570943
ag2
(g6
S'\x81K\xb0/\xf5\x00\xb6?'
p2493
tp2494
Rp2495
aa(lp2496
F-2.0072021943412715
ag2
(g6
S'\xafv\xbdq\x98\x9c\xb5?'
p2497
tp2498
Rp2499
aa(lp2500
F-2.029265136338932
ag2
(g6
S'\x87e\x05\xd9\x01\xe7\xb5?'
p2501
tp2502
Rp2503
aa(lp2504
F-2.013810328080299
ag2
(g6
S"h\x00N\xc6\xaa'\xb6?"
p2505
tp2506
Rp2507
aa(lp2508
F-1.9255375903380143
ag2
(g6
S'\x04\x08W\xad\x06\xaf\xb5?'
p2509
tp2510
Rp2511
aa(lp2512
F-1.9302518085970686
ag2
(g6
S'[\x84\x835\xf5\xaf\xb5?'
p2513
tp2514
Rp2515
aa(lp2516
F-2.043679654066235
ag2
(g6
S'\x11\x08\xfc\xff\xc3"\xb6?'
p2517
tp2518
Rp2519
aa(lp2520
F-2.067131830567473
ag2
(g6
S'\xe7;\xdf\xc4\xded\xb6?'
p2521
tp2522
Rp2523
aa(lp2524
F-2.0010798485897547
ag2
(g6
S'\xe9\xda\xc9W\xcdu\xb6?'
p2525
tp2526
Rp2527
aa(lp2528
F-1.9895550341012622
ag2
(g6
S"\xcf\xb2\xb4\x84'\xcf\xb6?"
p2529
tp2530
Rp2531
aa(lp2532
F-2.028662113202886
ag2
(g6
S"W\xcf\x8f\x19'1\xb7?"
p2533
tp2534
Rp2535
aa(lp2536
F-1.9929337791470825
ag2
(g6
S'\xaaU/i\x81\xb8\xb6?'
p2537
tp2538
Rp2539
aa(lp2540
F-2.0270403415916225
ag2
(g6
S'\x92h\xe8+\x1d\xae\xb6?'
p2541
tp2542
Rp2543
aa(lp2544
F-1.9912419483783008
ag2
(g6
S'\xea\x91"Op\xe9\xb6?'
p2545
tp2546
Rp2547
aa(lp2548
F-2.0647748682331346
ag2
(g6
S'3\xcb\xab\xdb#\xad\xb6?'
p2549
tp2550
Rp2551
aa(lp2552
F-1.948069059013796
ag2
(g6
S'\xcb\x14\x97\xa1\xcd\x0c\xb7?'
p2553
tp2554
Rp2555
aa(lp2556
F-2.0386111602073895
ag2
(g6
S'\x84\xb6"\xff\x00\x14\xb7?'
p2557
tp2558
Rp2559
aa(lp2560
F-1.9803660697433307
ag2
(g6
S'\xe7\xf3.\xabTH\xb7?'
p2561
tp2562
Rp2563
aa(lp2564
F-2.0205304595944082
ag2
(g6
S'|\x94/\x1cb0\xb7?'
p2565
tp2566
Rp2567
aa(lp2568
F-2.0071547250228385
ag2
(g6
S'\x1c\x16N\xd7\x10\xf7\xb6?'
p2569
tp2570
Rp2571
aa(lp2572
F-1.9098630849370717
ag2
(g6
S'\x1c\x00\xb6()v\xb6?'
p2573
tp2574
Rp2575
aa(lp2576
F-2.0911453712571633
ag2
(g6
S'\xcb\x91\xea_\xde\xa1\xb6?'
p2577
tp2578
Rp2579
aa(lp2580
F-2.028729315693541
ag2
(g6
S'9\xe3O\xc6\xc0z\xb6?'
p2581
tp2582
Rp2583
aa(lp2584
F-2.0559463772922175
ag2
(g6
S'^\x9e\xaf0\x84^\xb6?'
p2585
tp2586
Rp2587
aa(lp2588
F-2.096786981677062
ag2
(g6
S'\xbe3^\xe8=b\xb6?'
p2589
tp2590
Rp2591
aa(lp2592
F-2.0445889732210993
ag2
(g6
S'k\x1d\xe9\xa3R<\xb6?'
p2593
tp2594
Rp2595
aa(lp2596
F-2.022062275084854
ag2
(g6
S'$\x1f\x0f\x8a\x06\x81\xb6?'
p2597
tp2598
Rp2599
aa(lp2600
F-1.9632684982710542
ag2
(g6
S'R\xf0[\x9c\xd7.\xb6?'
p2601
tp2602
Rp2603
aa(lp2604
F-2.0756063415679984
ag2
(g6
S'\xc0\xe4\xf1\x02\xef\x1f\xb6?'
p2605
tp2606
Rp2607
aa(lp2608
F-2.0608664845372116
ag2
(g6
S'1\xb3\xd9^\xd8Y\xb6?'
p2609
tp2610
Rp2611
aa(lp2612
F-2.039021337072449
ag2
(g6
S'\xe5\xa8\x9c\xd2\xa8g\xb6?'
p2613
tp2614
Rp2615
aa(lp2616
F-1.9891708775532846
ag2
(g6
S'q\xfc\x8c;/\xa9\xb6?'
p2617
tp2618
Rp2619
aa(lp2620
F-1.9105774222488687
ag2
(g6
S'\xaf\x9e8\xda>\xaf\xb6?'
p2621
tp2622
Rp2623
aa(lp2624
F-1.8645704903304865
ag2
(g6
S'\xb4\x9b\x95\xa7\xed\xc5\xb6?'
p2625
tp2626
Rp2627
aa(lp2628
F-1.966915769613617
ag2
(g6
S'\xaf\xc8\xc5G\xfb\xe9\xb6?'
p2629
tp2630
Rp2631
aa(lp2632
F-1.9306137257962421
ag2
(g6
S'f\xf5=\xecI\xeb\xb6?'
p2633
tp2634
Rp2635
aa(lp2636
F-2.0299618868126283
ag2
(g6
S'\xdc\xa2v\xcb\n\x0e\xb7?'
p2637
tp2638
Rp2639
aa(lp2640
F-2.0286403652586977
ag2
(g6
S'\x1e\x12\xd6\xa7\x14\xb4\xb6?'
p2641
tp2642
Rp2643
aa(lp2644
F-2.0416683370128683
ag2
(g6
S'\xe8&\xd3\xa3\xe2\xa3\xb6?'
p2645
tp2646
Rp2647
aa(lp2648
F-2.0195892952390246
ag2
(g6
S'\xdf_S\x08\x8b\xef\xb6?'
p2649
tp2650
Rp2651
aa(lp2652
F-2.000837573602153
ag2
(g6
S'\xd93\xc8j|\x86\xb6?'
p2653
tp2654
Rp2655
aa(lp2656
F-2.0635443849652955
ag2
(g6
S'\xb0=\xb9\xce\x9b\xcc\xb6?'
p2657
tp2658
Rp2659
aa(lp2660
F-2.052352797766739
ag2
(g6
S'_\x05\x95\xe3\xf7p\xb6?'
p2661
tp2662
Rp2663
aa(lp2664
F-2.0314513335951183
ag2
(g6
S'Qb\xb8\xea]$\xb6?'
p2665
tp2666
Rp2667
aa(lp2668
F-2.099096747450109
ag2
(g6
S'\xa4 Qy\x90\x11\xb6?'
p2669
tp2670
Rp2671
aa(lp2672
F-2.0005965917020787
ag2
(g6
S'\xcadUSQ\x1d\xb6?'
p2673
tp2674
Rp2675
aa(lp2676
F-1.9669931619296253
ag2
(g6
S'\\\xe6\xac\xe8\xa1\r\xb6?'
p2677
tp2678
Rp2679
aa(lp2680
F-1.9591977594899976
ag2
(g6
S'iem\xcfW\xe0\xb5?'
p2681
tp2682
Rp2683
aa(lp2684
F-2.041675807036683
ag2
(g6
S'\x1f#\x7f4(\x12\xb6?'
p2685
tp2686
Rp2687
aa(lp2688
F-2.090801324157483
ag2
(g6
S'\x1axf%aY\xb6?'
p2689
tp2690
Rp2691
aa(lp2692
F-2.0062988135146287
ag2
(g6
S'\xd5\xd6\xff\xea\x95>\xb6?'
p2693
tp2694
Rp2695
aa(lp2696
F-2.0339426422411435
ag2
(g6
S'\xe6\xc2|\x08\x036\xb6?'
p2697
tp2698
Rp2699
aa(lp2700
F-2.007513235520833
ag2
(g6
S'g.J\r\x19\xf6\xb5?'
p2701
tp2702
Rp2703
aa(lp2704
F-1.9647810695127617
ag2
(g6
S'`\xcaS\xc7\xabM\xb6?'
p2705
tp2706
Rp2707
aa(lp2708
F-2.0402770909011485
ag2
(g6
S'\xe0y\x18\x98\xf0X\xb6?'
p2709
tp2710
Rp2711
aa(lp2712
F-2.0153981106049046
ag2
(g6
S'\xbf|\x97\xe1s;\xb6?'
p2713
tp2714
Rp2715
aa(lp2716
F-1.9621755915936687
ag2
(g6
S'\x0f\nSNU\x10\xb6?'
p2717
tp2718
Rp2719
aa(lp2720
F-1.943853463727895
ag2
(g6
S'.MN\r\xbf\x17\xb6?'
p2721
tp2722
Rp2723
aa(lp2724
F-1.9408258315134193
ag2
(g6
S'\xfe\xa7&]!+\xb6?'
p2725
tp2726
Rp2727
aa(lp2728
F-2.0132125460184174
ag2
(g6
S'\xde\r\xda\x9a!\x1a\xb6?'
p2729
tp2730
Rp2731
aa(lp2732
F-2.004022547588184
ag2
(g6
S'`\x03\xd4\x98\x8d\xa7\xb5?'
p2733
tp2734
Rp2735
aa(lp2736
F-2.034434490670135
ag2
(g6
S'\x0f\xfb\x95\x86Pp\xb5?'
p2737
tp2738
Rp2739
aa(lp2740
F-1.966827166009997
ag2
(g6
S'\x88z\x9e\x08\x89\x95\xb5?'
p2741
tp2742
Rp2743
aa(lp2744
F-2.103681597622488
ag2
(g6
S'\x9c5\xb2r\x1a\xe1\xb5?'
p2745
tp2746
Rp2747
aa(lp2748
F-2.1833563705839154
ag2
(g6
S'\xe9\xa2\x06\xb2\xbf\x03\xb6?'
p2749
tp2750
Rp2751
aa(lp2752
F-2.1554003071132226
ag2
(g6
S'm{\x90&=5\xb6?'
p2753
tp2754
Rp2755
aa(lp2756
F-2.0396995362722112
ag2
(g6
S'\x04I\xe6\xf6\xef\xfc\xb5?'
p2757
tp2758
Rp2759
aa(lp2760
F-1.9766285698127402
ag2
(g6
S'/\x08\x1b\xff\xa7\xbc\xb5?'
p2761
tp2762
Rp2763
aa(lp2764
F-2.0963309321704697
ag2
(g6
S'O?\xda\xd2\x15\xaa\xb5?'
p2765
tp2766
Rp2767
aa(lp2768
F-2.0095506904796667
ag2
(g6
S"\x10\xbb\xd8M'\xc0\xb5?"
p2769
tp2770
Rp2771
aa(lp2772
F-1.9683364287901102
ag2
(g6
S'\xb6\xc3\x10\x8aS`\xb5?'
p2773
tp2774
Rp2775
aa(lp2776
F-1.998561711687115
ag2
(g6
S'\x18\x9bU\xaf\x88\xa3\xb5?'
p2777
tp2778
Rp2779
aa(lp2780
F-2.1300379584530913
ag2
(g6
S'\x9e\x04\xc4\x18\x1a\x89\xb5?'
p2781
tp2782
Rp2783
aa(lp2784
F-2.005031841125712
ag2
(g6
S'\xf8h\xf2[q\x88\xb5?'
p2785
tp2786
Rp2787
aa(lp2788
F-2.023584867176709
ag2
(g6
S'>\x7f5)\xc8\x94\xb5?'
p2789
tp2790
Rp2791
aa(lp2792
F-2.019089781482513
ag2
(g6
S'\xe2\xb8\xb1\xd9\x82\x85\xb5?'
p2793
tp2794
Rp2795
aa(lp2796
F-1.997083722692706
ag2
(g6
S'\x14\xe5_\x89Z\xfb\xb5?'
p2797
tp2798
Rp2799
aa(lp2800
F-2.0936949010310553
ag2
(g6
S'\x95B\x10\xf9Y\xe5\xb5?'
p2801
tp2802
Rp2803
aa(lp2804
F-2.005473965506742
ag2
(g6
S'F\xcbu\xf3\xe7\xb5\xb5?'
p2805
tp2806
Rp2807
aa(lp2808
F-2.0289443050445413
ag2
(g6
S'\xc7\x0f%\xb4\xedq\xb5?'
p2809
tp2810
Rp2811
aa(lp2812
F-2.020486823684259
ag2
(g6
S'\x9a\xf5\x9cO!\x87\xb5?'
p2813
tp2814
Rp2815
aa(lp2816
F-2.0404719302028385
ag2
(g6
S'\xd7\t\x12\xbc\xdd\x8f\xb5?'
p2817
tp2818
Rp2819
aa(lp2820
F-2.079020941678338
ag2
(g6
S'\x0c\xffL\xb8E\xa4\xb5?'
p2821
tp2822
Rp2823
aa(lp2824
F-2.0231693363788
ag2
(g6
S'Q\xa8r\x84D\xc5\xb5?'
p2825
tp2826
Rp2827
aa(lp2828
F-2.055671235942498
ag2
(g6
S'\xcd I\xa5q\xa7\xb5?'
p2829
tp2830
Rp2831
aa(lp2832
F-2.074313665146124
ag2
(g6
S'u\xa9\x88\x1f\xf25\xb5?'
p2833
tp2834
Rp2835
aa(lp2836
F-2.018358290780331
ag2
(g6
S'\xcf;\xbaE\xcd!\xb5?'
p2837
tp2838
Rp2839
aa(lp2840
F-2.0740686747817425
ag2
(g6
S'\xfd\xbbft\xd4;\xb5?'
p2841
tp2842
Rp2843
aa(lp2844
F-2.0042594241727274
ag2
(g6
S'\xf8UJ\x0b\x18\xf2\xb4?'
p2845
tp2846
Rp2847
aa(lp2848
F-2.1169718654699365
ag2
(g6
S'\xda\xeb\xc7\xe3f\xe5\xb4?'
p2849
tp2850
Rp2851
aa(lp2852
F-2.0738601612958303
ag2
(g6
S'\x91\x98H\xa5i\x88\xb4?'
p2853
tp2854
Rp2855
aa(lp2856
F-2.093817844968637
ag2
(g6
S'7\xd9\xb2k\xa6}\xb4?'
p2857
tp2858
Rp2859
aa(lp2860
F-2.0372441440631253
ag2
(g6
S'v\xf3$t\xcc~\xb4?'
p2861
tp2862
Rp2863
aa(lp2864
F-2.050845751589462
ag2
(g6
S'wh\x8e\xb9\xaf\x91\xb4?'
p2865
tp2866
Rp2867
aa(lp2868
F-2.1268133343055835
ag2
(g6
S'\xeah\x9dp\xd6\xa7\xb4?'
p2869
tp2870
Rp2871
aa(lp2872
F-2.0945807728191483
ag2
(g6
S'r=\xe8\xe4\xe8\x1b\xb4?'
p2873
tp2874
Rp2875
aa(lp2876
F-2.0065548233926034
ag2
(g6
S'\x12\xe8\x0c\x1e\xc0\r\xb4?'
p2877
tp2878
Rp2879
aa(lp2880
F-2.0572600847860945
ag2
(g6
S'\xd0\xc0\x12Q\x13\x1b\xb4?'
p2881
tp2882
Rp2883
aa(lp2884
F-2.024193194123401
ag2
(g6
S'\xc3\xda\r\x9f\x14\xbb\xb3?'
p2885
tp2886
Rp2887
aa(lp2888
F-2.036648800759421
ag2
(g6
S'g\xa0f\xfa\xbd~\xb3?'
p2889
tp2890
Rp2891
aa(lp2892
F-1.99745342569463
ag2
(g6
S'\x8c\x1c%LB\x80\xb3?'
p2893
tp2894
Rp2895
aa(lp2896
F-2.0528251915508338
ag2
(g6
S'\xbb\xe3*\xb7\x96C\xb3?'
p2897
tp2898
Rp2899
aa(lp2900
F-2.095694463140655
ag2
(g6
S'\xe4\xa2\xb6"\xbc\r\xb3?'
p2901
tp2902
Rp2903
aa(lp2904
F-2.019856047601547
ag2
(g6
S'\xd7\x19w\x87\x9f&\xb3?'
p2905
tp2906
Rp2907
aa(lp2908
F-2.12586055236654
ag2
(g6
S'\x01\xaeZ`XD\xb3?'
p2909
tp2910
Rp2911
aa(lp2912
F-2.073520596735988
ag2
(g6
S'K\x0b\xb1\xdd%@\xb3?'
p2913
tp2914
Rp2915
aa(lp2916
F-2.019642732001861
ag2
(g6
S'R\x90XIOG\xb3?'
p2917
tp2918
Rp2919
aa(lp2920
F-2.0172670304308853
ag2
(g6
S'\xc8,Y=CB\xb3?'
p2921
tp2922
Rp2923
aa(lp2924
F-2.13949373635688
ag2
(g6
S'\x0f\xb2\xd0\x0c\x99c\xb3?'
p2925
tp2926
Rp2927
aa(lp2928
F-2.1031008029238265
ag2
(g6
S'\xd8\xfa\x97\xfa\x114\xb3?'
p2929
tp2930
Rp2931
aa(lp2932
F-2.0217602044917005
ag2
(g6
S'F\x1ev\xdd\xe3>\xb3?'
p2933
tp2934
Rp2935
aa(lp2936
F-1.9723868370522366
ag2
(g6
S'u5\xb1\t\xe99\xb3?'
p2937
tp2938
Rp2939
aa(lp2940
F-2.1749583059154216
ag2
(g6
S'prPD4R\xb3?'
p2941
tp2942
Rp2943
aa(lp2944
F-2.055816435964582
ag2
(g6
S'8?\x9d\xdf\xc0\xe4\xb2?'
p2945
tp2946
Rp2947
aa(lp2948
F-2.0738738922955724
ag2
(g6
S'K/\xbaY4`\xb3?'
p2949
tp2950
Rp2951
aa(lp2952
F-2.0678003256651345
ag2
(g6
S'\x16\x1d\x14\xa3\x05<\xb3?'
p2953
tp2954
Rp2955
aa(lp2956
F-2.0996901890763735
ag2
(g6
S'\\,\n\x06\x1d\xff\xb2?'
p2957
tp2958
Rp2959
aa(lp2960
F-2.078638559105225
ag2
(g6
S'\xdeE\xfe4\x89\xd1\xb2?'
p2961
tp2962
Rp2963
aa(lp2964
F-2.0009527993506246
ag2
(g6
S'\x97\x84\xd2z$\xd8\xb2?'
p2965
tp2966
Rp2967
aa(lp2968
F-2.0957539383599766
ag2
(g6
S'\x1f\x15FD\xd2\xda\xb2?'
p2969
tp2970
Rp2971
aa(lp2972
F-2.0614626625325854
ag2
(g6
S'\xa8\xc5Y\xdf\xa9\xc9\xb2?'
p2973
tp2974
Rp2975
aa(lp2976
F-2.02020509347929
ag2
(g6
S'\xabb\x9b=8\xc4\xb2?'
p2977
tp2978
Rp2979
aa(lp2980
F-2.0974842793637243
ag2
(g6
S'\xb0\x01\xf5W\x0c\xf7\xb2?'
p2981
tp2982
Rp2983
aa(lp2984
F-2.038525362199189
ag2
(g6
S'\x18p\xc30\x08\x1d\xb3?'
p2985
tp2986
Rp2987
aa(lp2988
F-2.0098494238557736
ag2
(g6
S'\x08\xe4>\x84>\x15\xb3?'
p2989
tp2990
Rp2991
aa(lp2992
F-2.008566372984681
ag2
(g6
S'\xb7\xfcY\xfeb\x1b\xb3?'
p2993
tp2994
Rp2995
aa(lp2996
F-2.09477205590281
ag2
(g6
S'\x05u\xbd\x0f\xce.\xb3?'
p2997
tp2998
Rp2999
aa(lp3000
F-2.1287233743363614
ag2
(g6
S'\x15\x1bW\xc2\xc2\xed\xb2?'
p3001
tp3002
Rp3003
aa(lp3004
F-2.172210166236399
ag2
(g6
S'U1n\xb93\xc0\xb2?'
p3005
tp3006
Rp3007
aa(lp3008
F-2.0370813675035504
ag2
(g6
S'X\xdd\x81A\xf6\xa4\xb2?'
p3009
tp3010
Rp3011
aa(lp3012
F-2.063716021966424
ag2
(g6
S'\x96\x81\xc9g\xa7\xdf\xb2?'
p3013
tp3014
Rp3015
aa(lp3016
F-1.9791693621622202
ag2
(g6
S'\x90-\x1a\xd4/\xfa\xb2?'
p3017
tp3018
Rp3019
aa(lp3020
F-1.9621268175787632
ag2
(g6
S'J\xe9\xcax\xfb&\xb3?'
p3021
tp3022
Rp3023
aa(lp3024
F-2.006366421463425
ag2
(g6
S'\x99\xad\xfbb"\xb5\xb3?'
p3025
tp3026
Rp3027
aa(lp3028
F-1.9852293995211125
ag2
(g6
S'\x1d\xe6J\xb9O\xed\xb3?'
p3029
tp3030
Rp3031
aa(lp3032
F-2.1398968157396134
ag2
(g6
S'C\x1e9\xf22>\xb4?'
p3033
tp3034
Rp3035
aa(lp3036
F-1.9856851474782469
ag2
(g6
S'z\xf2\n\x93s"\xb4?'
p3037
tp3038
Rp3039
aa(lp3040
F-2.0352201217884573
ag2
(g6
S'\x0fp\x90\xba6U\xb4?'
p3041
tp3042
Rp3043
aa(lp3044
F-1.9803793858849719
ag2
(g6
S'\xcap\x9c\x16\x845\xb4?'
p3045
tp3046
Rp3047
aa(lp3048
F-2.019720531813951
ag2
(g6
S'\xc1H\x82)\xf00\xb4?'
p3049
tp3050
Rp3051
aa(lp3052
F-2.0385968421111937
ag2
(g6
S'Z\xae/zY\xfc\xb3?'
p3053
tp3054
Rp3055
aa(lp3056
F-2.0644004089832837
ag2
(g6
S'\x9ez\x8a\xea\x0eH\xb4?'
p3057
tp3058
Rp3059
aa(lp3060
F-2.134616871428583
ag2
(g6
S'\x04\xeb\xb7\xa2k\xbd\xb3?'
p3061
tp3062
Rp3063
aa(lp3064
F-2.149836830630957
ag2
(g6
S'\x16\xd8\xa5Z\x15f\xb3?'
p3065
tp3066
Rp3067
aa(lp3068
F-2.029819958459674
ag2
(g6
S'j\xe0\x9b\x9ds\x81\xb3?'
p3069
tp3070
Rp3071
aa(lp3072
F-2.00613814883525
ag2
(g6
S'I\r\xcd`\xbfZ\xb3?'
p3073
tp3074
Rp3075
aa(lp3076
F-2.1301549123311974
ag2
(g6
S'\x84%\xb5~!7\xb3?'
p3077
tp3078
Rp3079
aa(lp3080
F-2.001815899327237
ag2
(g6
S'\x91\x03H5\x86\x1f\xb3?'
p3081
tp3082
Rp3083
aa(lp3084
F-2.041584452594796
ag2
(g6
S'\x96W\x98z,\x11\xb3?'
p3085
tp3086
Rp3087
aa(lp3088
F-2.018770439814875
ag2
(g6
S'u\x84\x89\xad\xa8F\xb3?'
p3089
tp3090
Rp3091
aa(lp3092
F-2.029114621472977
ag2
(g6
S'E7\t\xf7\x83\xfc\xb2?'
p3093
tp3094
Rp3095
aa(lp3096
F-2.066620384674865
ag2
(g6
S'\xf1Qr\xf2\xb3\xec\xb2?'
p3097
tp3098
Rp3099
aa(lp3100
F-2.055442699240322
ag2
(g6
S'-5`\x01\xbf\xd5\xb2?'
p3101
tp3102
Rp3103
aa(lp3104
F-2.087653640228644
ag2
(g6
S'\x885)\x13o\xe2\xb2?'
p3105
tp3106
Rp3107
aa(lp3108
F-2.0527953735476174
ag2
(g6
S'\x907\x81\xdd;\xd4\xb2?'
p3109
tp3110
Rp3111
aa(lp3112
F-2.0070926438878804
ag2
(g6
S'\xa7!~\x03\xef\xf1\xb2?'
p3113
tp3114
Rp3115
aa(lp3116
F-2.1090849033276164
ag2
(g6
S'\xe9n\xc3\xdc\x10]\xb3?'
p3117
tp3118
Rp3119
aa(lp3120
F-2.083388497602552
ag2
(g6
S'\x14R\x04\xf2\xc3;\xb3?'
p3121
tp3122
Rp3123
aa(lp3124
F-2.026028187752248
ag2
(g6
S'\xec\xf1\x9d-jJ\xb3?'
p3125
tp3126
Rp3127
aa(lp3128
F-2.040919456204789
ag2
(g6
S'\x1e\x1a\xb2\xde\xc0\x10\xb3?'
p3129
tp3130
Rp3131
aa(lp3132
F-2.0389515308214565
ag2
(g6
S'3\xf4\xdc\xd6q\xe0\xb2?'
p3133
tp3134
Rp3135
aa(lp3136
F-2.115636009858926
ag2
(g6
S"C'\x9b\x0e\xb6\xc4\xb2?"
p3137
tp3138
Rp3139
aa(lp3140
F-2.073736787849791
ag2
(g6
S'\xd2\xb0\xe9\x97tj\xb2?'
p3141
tp3142
Rp3143
aa(lp3144
F-2.1911380412713606
ag2
(g6
S'\x8e\xdcY\x8b\xdb\x12\xb2?'
p3145
tp3146
Rp3147
aa(lp3148
F-2.094775156154773
ag2
(g6
S'\xc32cn\x07\xfa\xb1?'
p3149
tp3150
Rp3151
aa(lp3152
F-2.0544518132205036
ag2
(g6
S'\x85\xa81P"\x01\xb2?'
p3153
tp3154
Rp3155
aa(lp3156
F-2.117471111999423
ag2
(g6
S'\xb6\xacwM3s\xb2?'
p3157
tp3158
Rp3159
aa(lp3160
F-2.096358851795743
ag2
(g6
S'p\xdd\x10\n:\x86\xb2?'
p3161
tp3162
Rp3163
aa(lp3164
F-2.0507983464666117
ag2
(g6
S'C\xa0\xe0\xce\xaai\xb2?'
p3165
tp3166
Rp3167
aa(lp3168
F-2.10439081719199
ag2
(g6
S'tw\x18 b\x86\xb2?'
p3169
tp3170
Rp3171
aa(lp3172
F-2.1341969783542583
ag2
(g6
S'\x88\xdd\x81.\x00\x1a\xb2?'
p3173
tp3174
Rp3175
aa(lp3176
F-2.2360623205149808
ag2
(g6
S'B\xbd\xbb\x95\xd1\xb1\xb1?'
p3177
tp3178
Rp3179
aa(lp3180
F-2.150987193638797
ag2
(g6
S'\xe9\xe4\xc7\x82\x04\xf3\xb1?'
p3181
tp3182
Rp3183
aa(lp3184
F-2.148788710556904
ag2
(g6
S'\x81\xd0U\x02:\x9f\xb1?'
p3185
tp3186
Rp3187
aa(lp3188
F-2.077351789300202
ag2
(g6
S'\xc6\xc3\x8e\x10\x89\xe9\xb0?'
p3189
tp3190
Rp3191
aa(lp3192
F-2.099604649186532
ag2
(g6
S'\xd1\x8fhx\x1b\xa1\xb0?'
p3193
tp3194
Rp3195
aa(lp3196
F-2.2933924544455415
ag2
(g6
S'\x02Hn\x8d\xfaF\xb0?'
p3197
tp3198
Rp3199
aa(lp3200
F-2.081582903963166
ag2
(g6
S'y*x\xa5)=\xb0?'
p3201
tp3202
Rp3203
aa(lp3204
F-2.061047241168537
ag2
(g6
S'\x9f\x10j?\xd58\xb0?'
p3205
tp3206
Rp3207
aa(lp3208
F-2.1422591824258226
ag2
(g6
S'\xb2\x1fPvk(\xb0?'
p3209
tp3210
Rp3211
aa(lp3212
F-2.125373274423444
ag2
(g6
S'\xcb\xb0\xc1\x82\x91 \xb0?'
p3213
tp3214
Rp3215
aa(lp3216
F-2.094423512685205
ag2
(g6
S'\xb9oH\xa1T\x85\xb0?'
p3217
tp3218
Rp3219
aa(lp3220
F-2.111755456401839
ag2
(g6
S'\x174zEie\xb0?'
p3221
tp3222
Rp3223
aa(lp3224
F-2.1553430435122474
ag2
(g6
S'\x9co\xae\xb4\xf7g\xb0?'
p3225
tp3226
Rp3227
aa(lp3228
F-2.1300930126260114
ag2
(g6
S'1\x0b\x81\xd6.o\xb0?'
p3229
tp3230
Rp3231
aa(lp3232
F-2.0440814868499246
ag2
(g6
S'\x04B\xca\xc8%\xcb\xb0?'
p3233
tp3234
Rp3235
aa(lp3236
F-2.0620190829104943
ag2
(g6
S'rY\x1dg\xa9\xb6\xb0?'
p3237
tp3238
Rp3239
aa(lp3240
F-2.152731693138245
ag2
(g6
S'\x19VjPeF\xb1?'
p3241
tp3242
Rp3243
aa(lp3244
F-2.223783044003661
ag2
(g6
S'U\xea\x90\n\xae>\xb1?'
p3245
tp3246
Rp3247
aa(lp3248
F-2.1797961105038026
ag2
(g6
S'\xd2a_\xcf/T\xb1?'
p3249
tp3250
Rp3251
aa(lp3252
F-2.030053262144143
ag2
(g6
S'\xbcY\x9aW\x99)\xb1?'
p3253
tp3254
Rp3255
aa(lp3256
F-2.0849095212083872
ag2
(g6
S':4<U\x0f>\xb1?'
p3257
tp3258
Rp3259
aa(lp3260
F-2.0959918294756417
ag2
(g6
S'\xb9\xb9d\x8b\xa7[\xb1?'
p3261
tp3262
Rp3263
aa(lp3264
F-2.1220109596921404
ag2
(g6
S'"\x9c\xdcU\x14\x8d\xb1?'
p3265
tp3266
Rp3267
aa(lp3268
F-2.0221887708533584
ag2
(g6
S'\xe8\xa0\t\xb4\xdb\x90\xb1?'
p3269
tp3270
Rp3271
aa(lp3272
F-2.072297501957649
ag2
(g6
S'\x02Xf\xd5\xfa\x98\xb1?'
p3273
tp3274
Rp3275
aa(lp3276
F-2.0472863687468696
ag2
(g6
S'o\xc5\xcb\x03\xfc\xc8\xb1?'
p3277
tp3278
Rp3279
aa(lp3280
F-2.070289330915051
ag2
(g6
S'\x9b9\n7\xf7\x00\xb2?'
p3281
tp3282
Rp3283
aa(lp3284
F-2.0970547837974802
ag2
(g6
S'l\x00k(\xaf\xd6\xb1?'
p3285
tp3286
Rp3287
aa(lp3288
F-2.126812569539002
ag2
(g6
S'K\x7f\xf7\xda\xee\xe9\xb1?'
p3289
tp3290
Rp3291
aa(lp3292
F-2.1337018881777516
ag2
(g6
S'\xf4\x10\xfa\xa2g\xc6\xb1?'
p3293
tp3294
Rp3295
aa(lp3296
F-2.025416329029611
ag2
(g6
S'\xc4=.t\xb2\xd5\xb1?'
p3297
tp3298
Rp3299
aa(lp3300
F-2.031487796881762
ag2
(g6
S'e\xf3\xf3\xabx\x1d\xb2?'
p3301
tp3302
Rp3303
aa(lp3304
F-2.150023069304959
ag2
(g6
S'\x7f\x16\xbd\x83H<\xb2?'
p3305
tp3306
Rp3307
aa(lp3308
F-2.0450700605422587
ag2
(g6
S"',\x814\x03`\xb2?"
p3309
tp3310
Rp3311
aa(lp3312
F-2.0939473694982604
ag2
(g6
S'\xc0s\x99\x03\x83t\xb2?'
p3313
tp3314
Rp3315
aa(lp3316
F-2.1332282956563775
ag2
(g6
S'\xa4\x15.K/\xb3\xb2?'
p3317
tp3318
Rp3319
aa(lp3320
F-2.109871317303347
ag2
(g6
S'd\xb0\x14\xc54\xc1\xb2?'
p3321
tp3322
Rp3323
aa(lp3324
F-2.040652746563055
ag2
(g6
S'\x18s\xa2\x98*\xfd\xb2?'
p3325
tp3326
Rp3327
aa(lp3328
F-1.9822721937240024
ag2
(g6
S'\xf2>"y\xdf\x85\xb3?'
p3329
tp3330
Rp3331
aa(lp3332
F-2.067619311154895
ag2
(g6
S'\xa2\x9d\xc0\xf6\x10\xe7\xb3?'
p3333
tp3334
Rp3335
aa(lp3336
F-2.147407997876011
ag2
(g6
S'\x1e\x8e\xf3\x127\x99\xb3?'
p3337
tp3338
Rp3339
aa(lp3340
F-2.0585578157696944
ag2
(g6
S'\xd1\x0e\xaaO\x03\x9e\xb3?'
p3341
tp3342
Rp3343
aa(lp3344
F-2.1134495536408617
ag2
(g6
S'\xd2Y\xde+\xbbo\xb3?'
p3345
tp3346
Rp3347
aa(lp3348
F-2.052961784919529
ag2
(g6
S'\\\x96\x9f\xa0\x8fb\xb3?'
p3349
tp3350
Rp3351
aa(lp3352
F-2.052393152106648
ag2
(g6
S'\x933\xe2\xe6A=\xb3?'
p3353
tp3354
Rp3355
aa(lp3356
F-2.0337013138300817
ag2
(g6
S'\x80\x8f\xf8zw+\xb3?'
p3357
tp3358
Rp3359
aa(lp3360
F-2.0533046550337355
ag2
(g6
S'M\x00K\xc4a\xe6\xb2?'
p3361
tp3362
Rp3363
aa(lp3364
F-2.0271740690707167
ag2
(g6
S'{#\xe9\x8c\xa1\xe9\xb2?'
p3365
tp3366
Rp3367
aa(lp3368
F-2.0379957813736223
ag2
(g6
S'\xcf\x13\x801\x13\xb1\xb2?'
p3369
tp3370
Rp3371
aa(lp3372
F-2.0104372595434956
ag2
(g6
S'\xf0\xc1\xf8\x83\x96\xb4\xb2?'
p3373
tp3374
Rp3375
aa(lp3376
F-2.1496885809165605
ag2
(g6
S'f`\xffm\xc2\xff\xb2?'
p3377
tp3378
Rp3379
aa(lp3380
F-2.1337198520645266
ag2
(g6
S'\xc0UVyU\x08\xb3?'
p3381
tp3382
Rp3383
aa(lp3384
F-2.096493019797858
ag2
(g6
S'\x96?T\xaa\xb10\xb3?'
p3385
tp3386
Rp3387
aa(lp3388
F-2.067872414782337
ag2
(g6
S'\x9f\x9cXt9u\xb3?'
p3389
tp3390
Rp3391
aa(lp3392
F-1.995684793043934
ag2
(g6
S'\x90p\xff,\xef\xb9\xb3?'
p3393
tp3394
Rp3395
aa(lp3396
F-2.0846275378401047
ag2
(g6
S'\xa4 \xa4\xb6\xfb\x82\xb3?'
p3397
tp3398
Rp3399
aa(lp3400
F-2.051491966177433
ag2
(g6
S'!\x97\xcc\xf4NT\xb3?'
p3401
tp3402
Rp3403
aa(lp3404
F-1.9853124638640358
ag2
(g6
S'\xb3\xeff\xca\xae\x15\xb3?'
p3405
tp3406
Rp3407
aa(lp3408
F-2.050533874457194
ag2
(g6
S"=\x89O'q$\xb3?"
p3409
tp3410
Rp3411
aa(lp3412
F-2.047761582157165
ag2
(g6
S'7\xfa\xd8B:\xcd\xb2?'
p3413
tp3414
Rp3415
aa(lp3416
F-2.0745714557733126
ag2
(g6
S';7/\xb9\xd5l\xb2?'
p3417
tp3418
Rp3419
aa(lp3420
F-2.080419222636962
ag2
(g6
S'\xe1\xcd{&\xf6m\xb2?'
p3421
tp3422
Rp3423
aa(lp3424
F-2.140738818144082
ag2
(g6
S'\x8eJY\xf4\x95\xa4\xb2?'
p3425
tp3426
Rp3427
aa(lp3428
F-2.065987260595376
ag2
(g6
S'\x7f\xa0"\xd5\x9c\x86\xb2?'
p3429
tp3430
Rp3431
aa(lp3432
F-2.113452390556429
ag2
(g6
S'\xb7\x14\xbejI\xcf\xb2?'
p3433
tp3434
Rp3435
aa(lp3436
F-2.083680418918462
ag2
(g6
S'\xa3{\xb9z\x85\x04\xb3?'
p3437
tp3438
Rp3439
aa(lp3440
F-2.1124626775190167
ag2
(g6
S'\xd9\x8c\x8d\xf8F\x13\xb3?'
p3441
tp3442
Rp3443
aa(lp3444
F-2.037698344133812
ag2
(g6
S'-\x00%j\xd3\xe6\xb2?'
p3445
tp3446
Rp3447
aa(lp3448
F-2.064098078354055
ag2
(g6
S'\x02{\x91\x10\x8e\xbf\xb2?'
p3449
tp3450
Rp3451
aa(lp3452
F-2.0722806805638188
ag2
(g6
S'Ef\xc4\xfdp\xd7\xb2?'
p3453
tp3454
Rp3455
aa(lp3456
F-2.108372244971032
ag2
(g6
S'\xd3V6\xd9\xd2\x87\xb2?'
p3457
tp3458
Rp3459
aa(lp3460
F-2.1475487850447115
ag2
(g6
S'\xdda\x1c\xcf\x9ak\xb2?'
p3461
tp3462
Rp3463
aa(lp3464
F-2.1531433482669575
ag2
(g6
S'\x0e_yU)\x17\xb2?'
p3465
tp3466
Rp3467
aa(lp3468
F-2.150129013513021
ag2
(g6
S'\xd9\x7fC\xd5\x91\xef\xb1?'
p3469
tp3470
Rp3471
aa(lp3472
F-2.0986659183917635
ag2
(g6
S'\x7f|K\xe65\x06\xb2?'
p3473
tp3474
Rp3475
aa(lp3476
F-2.2489827429826144
ag2
(g6
S'8\xe12\x1f\xcb\xdf\xb1?'
p3477
tp3478
Rp3479
aa(lp3480
F-2.1703038554555936
ag2
(g6
S'8x36qw\xb1?'
p3481
tp3482
Rp3483
aa(lp3484
F-2.05570501521318
ag2
(g6
S'`\xe4+\xbf\x16]\xb1?'
p3485
tp3486
Rp3487
aa(lp3488
F-2.2671249669241185
ag2
(g6
S'Y\xc1\xf2\xf7\xc6\x87\xb1?'
p3489
tp3490
Rp3491
aa(lp3492
F-2.208272350562029
ag2
(g6
S'[\x91/=\x15\x9b\xb1?'
p3493
tp3494
Rp3495
aa(lp3496
F-2.1049588621039765
ag2
(g6
S'X\xa6J\xdc6\xca\xb1?'
p3497
tp3498
Rp3499
aa(lp3500
F-2.14283093925397
ag2
(g6
S'7\xcb\xb7\xe5\xf1r\xb1?'
p3501
tp3502
Rp3503
aa(lp3504
F-2.106820664403794
ag2
(g6
S'\xcc\x8di(\xa8\xa6\xb1?'
p3505
tp3506
Rp3507
aa(lp3508
F-2.092325662681212
ag2
(g6
S'KlE*+^\xb1?'
p3509
tp3510
Rp3511
aa(lp3512
F-2.0730032031933296
ag2
(g6
S'E=\xaf\x18\xab<\xb1?'
p3513
tp3514
Rp3515
aa(lp3516
F-2.0526682242431624
ag2
(g6
S'\xf1\xf0\x1b\t\xb6i\xb1?'
p3517
tp3518
Rp3519
aa(lp3520
F-2.1122035675974815
ag2
(g6
S'\xdb\xd2\xdf\xb9\xf0/\xb1?'
p3521
tp3522
Rp3523
aa(lp3524
F-2.0504498005812755
ag2
(g6
S';\xefI~AO\xb1?'
p3525
tp3526
Rp3527
aa(lp3528
F-2.114785396877898
ag2
(g6
S'r\t\xec\xafD\x80\xb1?'
p3529
tp3530
Rp3531
aa(lp3532
F-2.059037445613358
ag2
(g6
S'rX^\x90t\xa8\xb1?'
p3533
tp3534
Rp3535
aa(lp3536
F-2.1718104474249373
ag2
(g6
S'\xf6Q>\xcb1\xab\xb1?'
p3537
tp3538
Rp3539
aa(lp3540
F-2.08656915281336
ag2
(g6
S'\xa1\x98\x06z~\xac\xb1?'
p3541
tp3542
Rp3543
aa(lp3544
F-2.1149604553045878
ag2
(g6
S'\xb2\x06j\xfb\xb3\xb2\xb1?'
p3545
tp3546
Rp3547
aa(lp3548
F-2.067430051956829
ag2
(g6
S'G\xf3\x8a\xb7\x8e\x9f\xb1?'
p3549
tp3550
Rp3551
aa(lp3552
F-2.0239391897556485
ag2
(g6
S'N*\xef\x85\x1c\xe3\xb1?'
p3553
tp3554
Rp3555
aa(lp3556
F-2.09264428400065
ag2
(g6
S"\x0ct\x8c\x1a'\xa0\xb1?"
p3557
tp3558
Rp3559
aa(lp3560
F-2.0300665465512426
ag2
(g6
S'\xcb\xaa\xe0\xe4Z\xf4\xb1?'
p3561
tp3562
Rp3563
aa(lp3564
F-2.1331966931073856
ag2
(g6
S'\xb0\n\x14\xa9\xc7\xe7\xb1?'
p3565
tp3566
Rp3567
aa(lp3568
F-2.22956073101123
ag2
(g6
S'\x97W\x97\x9a\x05\x08\xb2?'
p3569
tp3570
Rp3571
aa(lp3572
F-2.1376115822954938
ag2
(g6
S'\x82]Lk\xa6\xbb\xb1?'
p3573
tp3574
Rp3575
aa(lp3576
F-2.0824148322054867
ag2
(g6
S'6A2\xb3\xb4g\xb1?'
p3577
tp3578
Rp3579
aa(lp3580
F-2.1171372306528244
ag2
(g6
S'l\x8bm\xe3\x97$\xb1?'
p3581
tp3582
Rp3583
aa(lp3584
F-2.0741089742195875
ag2
(g6
S"\x15\xf9\n\x94\x92'\xb1?"
p3585
tp3586
Rp3587
aa(lp3588
F-2.04988120684136
ag2
(g6
S'W-L\x9b\xc8.\xb1?'
p3589
tp3590
Rp3591
aa(lp3592
F-2.1027891458344294
ag2
(g6
S'\xf1a}W+\xe3\xb0?'
p3593
tp3594
Rp3595
aa(lp3596
F-2.1125154721152035
ag2
(g6
S'\x85\xf1\xa7\x08{\xe3\xb0?'
p3597
tp3598
Rp3599
aa(lp3600
F-2.060772771666253
ag2
(g6
S'\xa2u\xeb\x91\x18\xf7\xb0?'
p3601
tp3602
Rp3603
aa(lp3604
F-2.0367380117080036
ag2
(g6
S'54\xa0}\xf84\xb1?'
p3605
tp3606
Rp3607
aa(lp3608
F-2.1364931691754814
ag2
(g6
S'o\x02\xee\xe5;[\xb1?'
p3609
tp3610
Rp3611
aa(lp3612
F-2.1307096164236823
ag2
(g6
S'\x19G\x14\xc5\xc7\x80\xb1?'
p3613
tp3614
Rp3615
aa(lp3616
F-2.041269054777058
ag2
(g6
S'UA\xc75\x00\x9a\xb1?'
p3617
tp3618
Rp3619
aa(lp3620
F-2.083148615779212
ag2
(g6
S'\x87S\xd1\x13\x1e\x9e\xb1?'
p3621
tp3622
Rp3623
aa(lp3624
F-2.1123730558167764
ag2
(g6
S'5g6+\x8b\x8d\xb1?'
p3625
tp3626
Rp3627
aa(lp3628
F-2.1263074375294875
ag2
(g6
S'K\xae\xc34\xcf\xa6\xb1?'
p3629
tp3630
Rp3631
aa(lp3632
F-2.0888282396040196
ag2
(g6
S'2g\x13(9\xba\xb1?'
p3633
tp3634
Rp3635
aa(lp3636
F-2.0941652038974854
ag2
(g6
S'\x17\xf3\xb1 \xd6\xbf\xb1?'
p3637
tp3638
Rp3639
aa(lp3640
F-2.1382322705895027
ag2
(g6
S'\xa4\r>t\xa9\xe9\xb1?'
p3641
tp3642
Rp3643
aa(lp3644
F-2.1437831800152796
ag2
(g6
S'Gr2}g\xde\xb1?'
p3645
tp3646
Rp3647
aa(lp3648
F-2.1311159831518767
ag2
(g6
S'5J\xf9rp\xd4\xb1?'
p3649
tp3650
Rp3651
aa(lp3652
F-2.1047537245711623
ag2
(g6
S'Q\x03j=x\xbb\xb1?'
p3653
tp3654
Rp3655
aa(lp3656
F-2.0807765981718225
ag2
(g6
S'\x81\x93s\xf9\xf5\x03\xb2?'
p3657
tp3658
Rp3659
aa(lp3660
F-2.0976002149524597
ag2
(g6
S'\x08\x8c\x8e\x10\xea\xd7\xb1?'
p3661
tp3662
Rp3663
aa(lp3664
F-2.1760647066135284
ag2
(g6
S'H\x12\xea\x92\x9e\xe8\xb1?'
p3665
tp3666
Rp3667
aa(lp3668
F-2.027932969621784
ag2
(g6
S'\x1e\x87:\xf8\xaf\xeb\xb1?'
p3669
tp3670
Rp3671
aa(lp3672
F-2.119469821352496
ag2
(g6
S'?\xcb\x1e\xeb_\xfb\xb1?'
p3673
tp3674
Rp3675
aa(lp3676
F-2.068043929844261
ag2
(g6
S'\x97u@\x06\xf0M\xb2?'
p3677
tp3678
Rp3679
aa(lp3680
F-2.107413062531055
ag2
(g6
S'\xe2~x\x8a`4\xb2?'
p3681
tp3682
Rp3683
aa(lp3684
F-2.1229317576068683
ag2
(g6
S'V\x9c\xe6\x9b\x1e<\xb2?'
p3685
tp3686
Rp3687
aa(lp3688
F-2.042923206933249
ag2
(g6
S'\x8e\x0f\xefX\xcb/\xb2?'
p3689
tp3690
Rp3691
aa(lp3692
F-2.0872979472376083
ag2
(g6
S'\xf4A1Y\xc21\xb2?'
p3693
tp3694
Rp3695
aa(lp3696
F-1.9843468904873274
ag2
(g6
S'\xfa\xc7-\x00\x0c\xe6\xb1?'
p3697
tp3698
Rp3699
aa(lp3700
F-2.0831227801210743
ag2
(g6
S'\x0c\xe5\x83!T\x18\xb2?'
p3701
tp3702
Rp3703
aa(lp3704
F-2.0408179352445557
ag2
(g6
S'a+\xa1\xdb\x1b;\xb2?'
p3705
tp3706
Rp3707
aa(lp3708
F-2.1161494834947705
ag2
(g6
S't\x8a\xda\xc6Z\xfb\xb1?'
p3709
tp3710
Rp3711
aa(lp3712
F-2.1882404101233774
ag2
(g6
S't~\x8b\x0ee\x14\xb2?'
p3713
tp3714
Rp3715
aa(lp3716
F-2.041826099217257
ag2
(g6
S'\xf0Y\x14\xe6\xb9*\xb2?'
p3717
tp3718
Rp3719
aa(lp3720
F-2.038780412958317
ag2
(g6
S'oQz\\=6\xb2?'
p3721
tp3722
Rp3723
aa(lp3724
F-2.0020111579355517
ag2
(g6
S'R\xe2,\xc8a=\xb2?'
p3725
tp3726
Rp3727
aa(lp3728
F-2.0800844747541163
ag2
(g6
S'\x8b\xdf\xb1\xc5t*\xb2?'
p3729
tp3730
Rp3731
aa(lp3732
F-2.108762106326119
ag2
(g6
S'\xfe\x8eu\xf3\x11\xf3\xb1?'
p3733
tp3734
Rp3735
aa(lp3736
F-2.0893703249291056
ag2
(g6
S'\xc9\x14\xf0d\x03\xb9\xb1?'
p3737
tp3738
Rp3739
aa(lp3740
F-2.0660407080992744
ag2
(g6
S'SmV\x1b\xc6~\xb1?'
p3741
tp3742
Rp3743
aa(lp3744
F-2.02825846414444
ag2
(g6
S'U\xb3\x96j?\xc6\xb1?'
p3745
tp3746
Rp3747
aa(lp3748
F-2.0163653984024874
ag2
(g6
S'\xe6\xd2\xd8\xfa-\x9a\xb1?'
p3749
tp3750
Rp3751
aa(lp3752
F-2.10960197380966
ag2
(g6
S'8\x10\xcc\xec\x18\xa1\xb1?'
p3753
tp3754
Rp3755
aa(lp3756
F-2.1205238144971195
ag2
(g6
S'\xca5=\xd0\xcd]\xb1?'
p3757
tp3758
Rp3759
aa(lp3760
F-2.125734965647444
ag2
(g6
S'd\x99y\x9f\x01\n\xb1?'
p3761
tp3762
Rp3763
aa(lp3764
F-2.161342697327677
ag2
(g6
S'\xdc\xc4;A\x98\x0b\xb1?'
p3765
tp3766
Rp3767
aa(lp3768
F-2.0611641675162082
ag2
(g6
S'\x9b\xca^\xcd\x02\xd7\xb0?'
p3769
tp3770
Rp3771
aa(lp3772
F-2.194992764360708
ag2
(g6
S'\xf9C)\x17\xae\x98\xb0?'
p3773
tp3774
Rp3775
aa(lp3776
F-2.1931159249013916
ag2
(g6
S'\xe0-\x980g\x8a\xb0?'
p3777
tp3778
Rp3779
aa(lp3780
F-2.1711190789976413
ag2
(g6
S'\x13\x91\x14\xf8\x17\x98\xb0?'
p3781
tp3782
Rp3783
aa(lp3784
F-2.1171945464353112
ag2
(g6
S'\xab&\xc9\xb2(e\xb0?'
p3785
tp3786
Rp3787
aa(lp3788
F-2.1782050468504224
ag2
(g6
S'?\x9d\x14\x91\x06\x06\xb0?'
p3789
tp3790
Rp3791
aa(lp3792
F-2.108462806177252
ag2
(g6
S'\x98\x9f\x96\xf5\xd0*\xb0?'
p3793
tp3794
Rp3795
aa(lp3796
F-2.137925183385103
ag2
(g6
S'\x83Y\x8bLJ\x16\xb0?'
p3797
tp3798
Rp3799
aa(lp3800
F-2.082133951089139
ag2
(g6
S'\xe2\x91KP\xb3\x15\xb0?'
p3801
tp3802
Rp3803
aa(lp3804
F-2.2344773662492305
ag2
(g6
S'*\xf6nB\xea0\xb0?'
p3805
tp3806
Rp3807
aa(lp3808
F-2.130214380083432
ag2
(g6
S'\xc4\x9c\xa4\xc9\xbew\xaf?'
p3809
tp3810
Rp3811
aa(lp3812
F-2.184483363020552
ag2
(g6
S'y\xc5\x12\xc6d\x1b\xb0?'
p3813
tp3814
Rp3815
aa(lp3816
F-2.081084850164801
ag2
(g6
S'\xa0">\xab~\xdd\xaf?'
p3817
tp3818
Rp3819
aa(lp3820
F-2.1470910713966354
ag2
(g6
S'\x08\xea\xf0\xebt\xd2\xaf?'
p3821
tp3822
Rp3823
aa(lp3824
F-2.153952035682381
ag2
(g6
S'6a\xb8\x14\xbe\xc4\xae?'
p3825
tp3826
Rp3827
aa(lp3828
F-2.0747699767287986
ag2
(g6
S'\xa3\xa7\xf8\x93\xe7\x1f\xae?'
p3829
tp3830
Rp3831
aa(lp3832
F-2.168343645455681
ag2
(g6
S'\x9cY<\xc5\x05C\xae?'
p3833
tp3834
Rp3835
aa(lp3836
F-2.2064989353315667
ag2
(g6
S'\x92\x03%oPO\xae?'
p3837
tp3838
Rp3839
aa(lp3840
F-2.1478570226986373
ag2
(g6
S'\x8cV\tm7\xe0\xad?'
p3841
tp3842
Rp3843
aa(lp3844
F-2.1957665354132767
ag2
(g6
S'\xd0x0\x01\x18\xb1\xad?'
p3845
tp3846
Rp3847
aa(lp3848
F-2.1513637315549516
ag2
(g6
S'z\n\xd4\x1e\x7fd\xae?'
p3849
tp3850
Rp3851
aa(lp3852
F-2.146493008391301
ag2
(g6
S'\xb1\x8f\xb8|\xf3\x07\xaf?'
p3853
tp3854
Rp3855
aa(lp3856
F-2.1037386523753074
ag2
(g6
S'\x8e\x197\xe6\x8c/\xaf?'
p3857
tp3858
Rp3859
aa(lp3860
F-2.0602139352495867
ag2
(g6
S'6\xb8T\xc9\xb3<\xaf?'
p3861
tp3862
Rp3863
aa(lp3864
F-2.0879383143454073
ag2
(g6
S'`\xf4(1\x83h\xaf?'
p3865
tp3866
Rp3867
aa(lp3868
F-2.2043836102683243
ag2
(g6
S'\x113n8\x8d\x17\xaf?'
p3869
tp3870
Rp3871
aa(lp3872
F-2.1472670974789025
ag2
(g6
S'\xb8%AI\xe62\xaf?'
p3873
tp3874
Rp3875
aa(lp3876
F-2.226711874548061
ag2
(g6
S'\xa9\x08\xac\t#\xaa\xae?'
p3877
tp3878
Rp3879
aa(lp3880
F-2.101447395891021
ag2
(g6
S'T)\xbf\t\x1f\x0f\xaf?'
p3881
tp3882
Rp3883
aa(lp3884
F-2.1175201228025657
ag2
(g6
S's\xc1{\x12\xf7\x90\xaf?'
p3885
tp3886
Rp3887
aa(lp3888
F-2.119178412431076
ag2
(g6
S'-\x84"\xd3O\n\xaf?'
p3889
tp3890
Rp3891
aa(lp3892
F-2.147048944426188
ag2
(g6
S'`b\xc4k\xee\xb3\xaf?'
p3893
tp3894
Rp3895
aa(lp3896
F-2.1188287531555137
ag2
(g6
S'+\xb1u\xbf\xb2\x06\xb0?'
p3897
tp3898
Rp3899
aa(lp3900
F-2.1604171303188564
ag2
(g6
S'\xcb\xe5\xefN73\xb0?'
p3901
tp3902
Rp3903
aa(lp3904
F-2.1120562377682277
ag2
(g6
S'\xba}\xf0W\x173\xb0?'
p3905
tp3906
Rp3907
aa(lp3908
F-2.272098201407807
ag2
(g6
S'\xf6\xb6\xf2#\xc4\x03\xb0?'
p3909
tp3910
Rp3911
aa(lp3912
F-2.2785419588458335
ag2
(g6
S'7\x97\x10\x13\xa1\n\xb0?'
p3913
tp3914
Rp3915
aa(lp3916
F-2.1525178698190444
ag2
(g6
S'\r\rb\xe3\n\xb8\xaf?'
p3917
tp3918
Rp3919
aa(lp3920
F-2.070711349383853
ag2
(g6
S'\xdbv\xff\xb3Q\x8a\xaf?'
p3921
tp3922
Rp3923
aa(lp3924
F-2.2438361680215064
ag2
(g6
S'\x06;Q\xbfvh\xaf?'
p3925
tp3926
Rp3927
aa(lp3928
F-2.290514200288136
ag2
(g6
S'\xf5\xea\xf0\xc9\xe8\x05\xaf?'
p3929
tp3930
Rp3931
aa(lp3932
F-2.1283894679294626
ag2
(g6
S'o<\xfd\x83\xeeI\xaf?'
p3933
tp3934
Rp3935
aa(lp3936
F-2.162733142961181
ag2
(g6
S'\x8a\xc5u@\xc6\xa5\xaf?'
p3937
tp3938
Rp3939
aa(lp3940
F-2.1548427229957254
ag2
(g6
S'\nA\xd1P\x89+\xb0?'
p3941
tp3942
Rp3943
aa(lp3944
F-2.1726503034672326
ag2
(g6
S'\xedB>n\x8e\xc8\xaf?'
p3945
tp3946
Rp3947
aa(lp3948
F-2.250549534972972
ag2
(g6
S'\x1dx\xc4\xb9\xfc\xc7\xaf?'
p3949
tp3950
Rp3951
aa(lp3952
F-2.1853683721036967
ag2
(g6
S'\xb3\xce\xb6\x18\x8c\x12\xb0?'
p3953
tp3954
Rp3955
aa(lp3956
F-2.1537188590946283
ag2
(g6
S'\x8c\x1e\xe1\xb0M\xbb\xaf?'
p3957
tp3958
Rp3959
aa(lp3960
F-2.203891418872559
ag2
(g6
S'\xbc\xc3\xaa\xbc\x7fU\xaf?'
p3961
tp3962
Rp3963
aa(lp3964
F-2.092409954144519
ag2
(g6
S',\xc0nnm\x03\xaf?'
p3965
tp3966
Rp3967
aa(lp3968
F-2.068886017599406
ag2
(g6
S'\x80\xbeV\xd0\x1b\xc5\xae?'
p3969
tp3970
Rp3971
aa(lp3972
F-2.089783628262361
ag2
(g6
S'O,\x97\xd2\xc8o\xae?'
p3973
tp3974
Rp3975
aa(lp3976
F-2.084246202203909
ag2
(g6
S'yq$\xd1\xf5v\xae?'
p3977
tp3978
Rp3979
aa(lp3980
F-2.1240884086085905
ag2
(g6
S'\x9d\xcbQ\x05\xae3\xae?'
p3981
tp3982
Rp3983
aa(lp3984
F-2.1760694747314466
ag2
(g6
S'\xae>?\xf2\xf4\xbb\xae?'
p3985
tp3986
Rp3987
aa(lp3988
F-2.1957878687729337
ag2
(g6
S'LP_c\x9e\x9f\xae?'
p3989
tp3990
Rp3991
aa(lp3992
F-2.1605776068998086
ag2
(g6
S'\x99\xb1\xec\xf84P\xae?'
p3993
tp3994
Rp3995
aa(lp3996
F-2.059657799677851
ag2
(g6
S'Bi\x19\x84,\xcd\xad?'
p3997
tp3998
Rp3999
aa(lp4000
F-2.1020416804366646
ag2
(g6
S' \xca\xe7?\xa2\xa2\xad?'
p4001
tp4002
Rp4003
aa(lp4004
F-2.063516039015104
ag2
(g6
S'\x94\xf7V\x96e|\xad?'
p4005
tp4006
Rp4007
aa(lp4008
F-2.1002701365143697
ag2
(g6
S'2\xe5\xf7\xf6\xc9,\xad?'
p4009
tp4010
Rp4011
aa(lp4012
F-2.1682515009772163
ag2
(g6
S'\xc4\xe2c\xa2\x90\xde\xac?'
p4013
tp4014
Rp4015
aa(lp4016
F-2.144554678635173
ag2
(g6
S'\xee\x1c\x99C\xac\xd1\xac?'
p4017
tp4018
Rp4019
aa(lp4020
F-2.152135909613134
ag2
(g6
S'br\xed\x8e\x8b\xd1\xac?'
p4021
tp4022
Rp4023
aa(lp4024
F-2.1782519980629442
ag2
(g6
S'\xc0~\xb99\x13\xb2\xac?'
p4025
tp4026
Rp4027
aa(lp4028
F-2.189731568189097
ag2
(g6
S'!\x12i+Vp\xac?'
p4029
tp4030
Rp4031
aa(lp4032
F-2.098788749111832
ag2
(g6
S'\xc3\x13\xfb\x1a\x06+\xac?'
p4033
tp4034
Rp4035
aa(lp4036
F-2.251301633522608
ag2
(g6
S'\xacK0\x05\xaf=\xac?'
p4037
tp4038
Rp4039
aa(lp4040
F-2.239192970554587
ag2
(g6
S'\xbe.\x0e\xe6\x06\xe0\xab?'
p4041
tp4042
Rp4043
aa(lp4044
F-2.2062875357630594
ag2
(g6
S'F\x11! G\xb0\xab?'
p4045
tp4046
Rp4047
aa(lp4048
F-2.2462431742851643
ag2
(g6
S'&H\xaf+\x1b\xc5\xab?'
p4049
tp4050
Rp4051
aa(lp4052
F-2.198179334761056
ag2
(g6
S'P\xba\x1c\x15\xb9\xeb\xab?'
p4053
tp4054
Rp4055
aa(lp4056
F-2.2125553729161673
ag2
(g6
S'Aq\xd6l\xdc\x98\xab?'
p4057
tp4058
Rp4059
aa(lp4060
F-2.155112549758047
ag2
(g6
S'\x89J\xcb\x94\xb3x\xab?'
p4061
tp4062
Rp4063
aa(lp4064
F-2.2499942871366327
ag2
(g6
S'C\x89/\xf43\xa1\xab?'
p4065
tp4066
Rp4067
aa(lp4068
F-2.1466291977156136
ag2
(g6
S'8\xce\x8b}\xc6\xa4\xab?'
p4069
tp4070
Rp4071
aa(lp4072
F-2.1961362540456713
ag2
(g6
S'\xc9\x86\xfd\xad^8\xac?'
p4073
tp4074
Rp4075
aa(lp4076
F-2.1447409756598845
ag2
(g6
S'\x9d,\x86\x18\x1e\xf2\xab?'
p4077
tp4078
Rp4079
aa(lp4080
F-2.2050191135603647
ag2
(g6
S"mq\xb4\x83A'\xac?"
p4081
tp4082
Rp4083
aa(lp4084
F-2.1036880808180043
ag2
(g6
S'\xb4\xcb\x1e\x05\xba:\xac?'
p4085
tp4086
Rp4087
aa(lp4088
F-2.186017519382385
ag2
(g6
S'H\x95\xfb\x0c}}\xac?'
p4089
tp4090
Rp4091
aa(lp4092
F-2.1518028239217335
ag2
(g6
S'\xd6e}\xe4\xdbW\xac?'
p4093
tp4094
Rp4095
aa(lp4096
F-2.1563168272743685
ag2
(g6
S'p\x0f\xd86\xa2T\xac?'
p4097
tp4098
Rp4099
aa(lp4100
F-2.1265391865917844
ag2
(g6
S'\xc1<\x127\x15\xaa\xab?'
p4101
tp4102
Rp4103
aa(lp4104
F-2.1753001896862934
ag2
(g6
S"X'/\x02\xa0\xf7\xab?"
p4105
tp4106
Rp4107
aa(lp4108
F-2.171037513811199
ag2
(g6
S'\xe5\x94\xf2F\x89\xe1\xab?'
p4109
tp4110
Rp4111
aa(lp4112
F-2.1719892404400767
ag2
(g6
S'DG\r\xb9\xdd\x95\xab?'
p4113
tp4114
Rp4115
aa(lp4116
F-2.169619915567572
ag2
(g6
S'\xb8\xc0\x1c\x1a\xe5\xb8\xab?'
p4117
tp4118
Rp4119
aa(lp4120
F-2.2017437749182407
ag2
(g6
S'|EgX)\xa8\xab?'
p4121
tp4122
Rp4123
aa(lp4124
F-2.1728562279243726
ag2
(g6
S'\xfbV\x06kl\xf7\xab?'
p4125
tp4126
Rp4127
aa(lp4128
F-2.130271076074969
ag2
(g6
S'f\xae\xf3\x19\xa4\x04\xac?'
p4129
tp4130
Rp4131
aa(lp4132
F-2.1830175614078624
ag2
(g6
S'<\xfaC\xdf<\x18\xac?'
p4133
tp4134
Rp4135
aa(lp4136
F-2.1773428757412154
ag2
(g6
S'\\\xf3\x88\xf6\xb6\xa0\xac?'
p4137
tp4138
Rp4139
aa(lp4140
F-2.1364087777341485
ag2
(g6
S'K0\xf5\\*\xb3\xac?'
p4141
tp4142
Rp4143
aa(lp4144
F-2.167885643785493
ag2
(g6
S'$9\xc1\xca\xc1(\xad?'
p4145
tp4146
Rp4147
aa(lp4148
F-2.1459981743217402
ag2
(g6
S'\x8c\xd3\x96\x19\x13\x83\xad?'
p4149
tp4150
Rp4151
aa(lp4152
F-2.096735538970894
ag2
(g6
S'4\xe2s\x98\xf0b\xad?'
p4153
tp4154
Rp4155
aa(lp4156
F-2.1404496808335303
ag2
(g6
S'\xefr\x9b\x99\x8d\x85\xad?'
p4157
tp4158
Rp4159
aa(lp4160
F-2.191370481225429
ag2
(g6
S'\xc3Em\x94\x17\xf1\xad?'
p4161
tp4162
Rp4163
aa(lp4164
F-2.1727416832500173
ag2
(g6
S'\xe0\x95\x82\x9a\x91\xeb\xad?'
p4165
tp4166
Rp4167
aa(lp4168
F-2.1180781016189263
ag2
(g6
S'\xa2\xafxJ\xa3\xe1\xad?'
p4169
tp4170
Rp4171
aa(lp4172
F-2.1521934309963116
ag2
(g6
S'b"<\xee\x19\xf0\xad?'
p4173
tp4174
Rp4175
aa(lp4176
F-2.1076781039517027
ag2
(g6
S'S\x80\xb3\x9e\x816\xae?'
p4177
tp4178
Rp4179
aa(lp4180
F-2.1746602399564825
ag2
(g6
S'\xc4;\x98#\x0e9\xae?'
p4181
tp4182
Rp4183
aa(lp4184
F-2.1562585318067997
ag2
(g6
S'\xbc\x08\\\xb8\x1b\xa9\xae?'
p4185
tp4186
Rp4187
aa(lp4188
F-2.2147512975462775
ag2
(g6
S'k\xa7\xef\x08\xee\xfc\xae?'
p4189
tp4190
Rp4191
aa(lp4192
F-2.1703821737927234
ag2
(g6
S'f\xc0\x82\xc1Q\x8f\xae?'
p4193
tp4194
Rp4195
aa(lp4196
F-2.1638778060797015
ag2
(g6
S'\xe9\r\x93\xbbi\x94\xae?'
p4197
tp4198
Rp4199
aa(lp4200
F-2.1975799605767716
ag2
(g6
S'\xa2b\x17\x95"\xb1\xae?'
p4201
tp4202
Rp4203
aa(lp4204
F-2.2296698793545917
ag2
(g6
S'\x05\x12\xe2\xc0x\x15\xaf?'
p4205
tp4206
Rp4207
aa(lp4208
F-2.018341219315317
ag2
(g6
S'B\xa1\xec\xea"\xc3\xae?'
p4209
tp4210
Rp4211
aa(lp4212
F-2.287524874387306
ag2
(g6
S'\xaf\x83\x86\\o\xca\xae?'
p4213
tp4214
Rp4215
aa(lp4216
F-2.1277611518139508
ag2
(g6
S'\x92\xedZ\xfe5\xca\xae?'
p4217
tp4218
Rp4219
aa(lp4220
F-2.150107308879242
ag2
(g6
S'\x94\xb0\xb2\x0c5M\xaf?'
p4221
tp4222
Rp4223
aa(lp4224
F-2.198791773115736
ag2
(g6
S'\xf9\xb7\x8f\xe6f\xe2\xae?'
p4225
tp4226
Rp4227
aa(lp4228
F-2.2801784867741404
ag2
(g6
S'e\xd8?\xe6nk\xae?'
p4229
tp4230
Rp4231
aa(lp4232
F-2.2189589544193074
ag2
(g6
S'\xca\xe1\xa9\x8fMb\xae?'
p4233
tp4234
Rp4235
aa(lp4236
F-2.300416867278353
ag2
(g6
S'z\xf1B\x8d\x0e\x12\xae?'
p4237
tp4238
Rp4239
aa(lp4240
F-2.1071437065994525
ag2
(g6
S'\xd2\xffC\x13s\x08\xae?'
p4241
tp4242
Rp4243
aa(lp4244
F-2.2093069539830643
ag2
(g6
S'i7i,5\xc5\xad?'
p4245
tp4246
Rp4247
aa(lp4248
F-2.155700897575974
ag2
(g6
S'\x8a\x0c\x96#\xdc\x8b\xad?'
p4249
tp4250
Rp4251
aa(lp4252
F-2.154299564815445
ag2
(g6
S'"_\xbb\x92;t\xad?'
p4253
tp4254
Rp4255
aa(lp4256
F-2.1095129868332263
ag2
(g6
S'\xb0\xc7zk\xaa3\xad?'
p4257
tp4258
Rp4259
aa(lp4260
F-2.2103393520458186
ag2
(g6
S'\xf90\xb3}\xdb\x8d\xad?'
p4261
tp4262
Rp4263
aa(lp4264
F-2.1696327546764995
ag2
(g6
S'S\xfc*\xd5\x9cI\xad?'
p4265
tp4266
Rp4267
aa(lp4268
F-2.193643526366427
ag2
(g6
S'\r\xe7\x1c\xf8\x0e\xbe\xac?'
p4269
tp4270
Rp4271
aa(lp4272
F-2.114880794282359
ag2
(g6
S'\xcb\xaa.8R\t\xad?'
p4273
tp4274
Rp4275
aa(lp4276
F-2.1054201154140544
ag2
(g6
S'@j\x019d\x1f\xad?'
p4277
tp4278
Rp4279
aa(lp4280
F-2.139670592642015
ag2
(g6
S'\xa6\xd7G\xec\x99\xf5\xac?'
p4281
tp4282
Rp4283
aa(lp4284
F-2.113544871068604
ag2
(g6
S'#\xcf\xc0j\xd9E\xac?'
p4285
tp4286
Rp4287
aa(lp4288
F-2.097206316940581
ag2
(g6
S'X\xc8k\x18\xf0_\xac?'
p4289
tp4290
Rp4291
aa(lp4292
F-2.074002217746247
ag2
(g6
S'\xd23.\xd0\x02\xf5\xac?'
p4293
tp4294
Rp4295
aa(lp4296
F-2.1869253014994334
ag2
(g6
S'^J\x05\xe0\x19y\xac?'
p4297
tp4298
Rp4299
aa(lp4300
F-2.197657245003564
ag2
(g6
S'^#\\\xac8\xa6\xac?'
p4301
tp4302
Rp4303
aa(lp4304
F-2.1838800919497565
ag2
(g6
S'\x12\x7f\x82M\x92\xc6\xac?'
p4305
tp4306
Rp4307
aa(lp4308
F-2.079285667501356
ag2
(g6
S'\xa37\x0c\x82go\xad?'
p4309
tp4310
Rp4311
aa(lp4312
F-2.125592663931652
ag2
(g6
S'\xaci\x9e\xc9_\x1d\xad?'
p4313
tp4314
Rp4315
aa(lp4316
F-2.1715340088511605
ag2
(g6
S'\xb8I\x8erK{\xac?'
p4317
tp4318
Rp4319
aa(lp4320
F-2.187327084052367
ag2
(g6
S'\xb5\x18R\xddO\xa9\xac?'
p4321
tp4322
Rp4323
aa(lp4324
F-2.166498724638679
ag2
(g6
S'\xbb~[\x81_\xa8\xac?'
p4325
tp4326
Rp4327
aa(lp4328
F-2.140728942666689
ag2
(g6
S's|\xfc\x86\xef7\xad?'
p4329
tp4330
Rp4331
aa(lp4332
F-2.117130303109656
ag2
(g6
S'\xcb\xe0\xe6\xe7\xfe\xbd\xac?'
p4333
tp4334
Rp4335
aa(lp4336
F-2.1572136135262574
ag2
(g6
S'\xf4\xc8\xda_MY\xac?'
p4337
tp4338
Rp4339
aa(lp4340
F-2.139096080645385
ag2
(g6
S'|\xf2G\xc1F9\xac?'
p4341
tp4342
Rp4343
aa(lp4344
F-2.2448759099395126
ag2
(g6
S')\xc0\x04\x06\x0fp\xac?'
p4345
tp4346
Rp4347
aa(lp4348
F-2.0884088312178473
ag2
(g6
S'\x9c]\xb3\xbdk\x8b\xac?'
p4349
tp4350
Rp4351
aa(lp4352
F-2.0787900348308637
ag2
(g6
S'a\x9e\xf6\x9b\xd5L\xad?'
p4353
tp4354
Rp4355
aa(lp4356
F-2.075928194678219
ag2
(g6
S'\xf0\xb2\xa0\xbe\xfa\xc3\xad?'
p4357
tp4358
Rp4359
aa(lp4360
F-2.1083785252332
ag2
(g6
S'\xa5Z7\x19\xc9\xa0\xad?'
p4361
tp4362
Rp4363
aa(lp4364
F-2.2993337171772326
ag2
(g6
S'\xc9\x19\xfd\xaa\x88\x81\xad?'
p4365
tp4366
Rp4367
aa(lp4368
F-2.310940082566958
ag2
(g6
S'\xbaN\xf6=\xe4z\xad?'
p4369
tp4370
Rp4371
aa(lp4372
F-2.121582540358941
ag2
(g6
S'\xc8\xab\x12\xcf\xac\xda\xad?'
p4373
tp4374
Rp4375
aa(lp4376
F-2.1574621353586414
ag2
(g6
S'\x06\x19\xbb\x14\x85\xf3\xad?'
p4377
tp4378
Rp4379
aa(lp4380
F-2.1397605893135436
ag2
(g6
S'z\xd6\x9d\x80\xdf\xfd\xad?'
p4381
tp4382
Rp4383
aa(lp4384
F-2.1560365021476287
ag2
(g6
S'e\xaf1R\xd4;\xae?'
p4385
tp4386
Rp4387
aa(lp4388
F-2.196946632298307
ag2
(g6
S'"\xa3\xacP\xff$\xaf?'
p4389
tp4390
Rp4391
aa(lp4392
F-2.196625347073281
ag2
(g6
S'A{\xc6\x89\x9fY\xaf?'
p4393
tp4394
Rp4395
aa(lp4396
F-2.098028040577352
ag2
(g6
S'\xeeiM\x9c"\x93\xaf?'
p4397
tp4398
Rp4399
aa(lp4400
F-2.10697670176998
ag2
(g6
S'pv,\x9b\xf9S\xaf?'
p4401
tp4402
Rp4403
aa(lp4404
F-2.1712400390238793
ag2
(g6
S'\xf1\xc5IR<x\xae?'
p4405
tp4406
Rp4407
aa(lp4408
F-2.19998311422456
ag2
(g6
S'X\x1e\xfb\xb3\x93\xc9\xae?'
p4409
tp4410
Rp4411
aa(lp4412
F-2.1454406400070134
ag2
(g6
S'\xd8\x97\xf38\xb2\xc9\xae?'
p4413
tp4414
Rp4415
aa(lp4416
F-2.1276120239790477
ag2
(g6
S'\xdc\x15H#\xa9\x07\xae?'
p4417
tp4418
Rp4419
aa(lp4420
F-2.2117115243687158
ag2
(g6
S'\x07\xf7<\xe3\xb8\x97\xad?'
p4421
tp4422
Rp4423
aa(lp4424
F-2.121481653610866
ag2
(g6
S'g%\xa7%\x1e;\xad?'
p4425
tp4426
Rp4427
aa(lp4428
F-2.1864130323789346
ag2
(g6
S'\xf1\xf0Sw\xe7\xeb\xad?'
p4429
tp4430
Rp4431
aa(lp4432
F-2.133524902809687
ag2
(g6
S'e\xf4\n\xdc\x87\xc8\xad?'
p4433
tp4434
Rp4435
aa(lp4436
F-2.17462715827049
ag2
(g6
S'\xea\xddH\x91\xa0\xc7\xad?'
p4437
tp4438
Rp4439
aa(lp4440
F-2.084617671341747
ag2
(g6
S"eI\x0eB'\xa1\xad?"
p4441
tp4442
Rp4443
aa(lp4444
F-2.254968613104092
ag2
(g6
S'\xe0#\x15\x18b\n\xae?'
p4445
tp4446
Rp4447
aa(lp4448
F-2.284339803944808
ag2
(g6
S'\x0f6\xc7\xbck\xf1\xad?'
p4449
tp4450
Rp4451
aa(lp4452
F-2.0784741750270372
ag2
(g6
S'L_\xc5!d+\xae?'
p4453
tp4454
Rp4455
aa(lp4456
F-2.069574829636062
ag2
(g6
S'\xe0\xedg\xff\xd3v\xae?'
p4457
tp4458
Rp4459
aa(lp4460
F-2.1983226048104645
ag2
(g6
S'\x89\xbf\x7f#)\xbe\xad?'
p4461
tp4462
Rp4463
aa(lp4464
F-2.11544522841469
ag2
(g6
S'"?H\xf6\xc7\xab\xad?'
p4465
tp4466
Rp4467
aa(lp4468
F-2.0721852372175817
ag2
(g6
S'\xb7\xe3\xf1\xad\xdd\xbb\xad?'
p4469
tp4470
Rp4471
aa(lp4472
F-2.1597582603920378
ag2
(g6
S'X0\x16Gq$\xae?'
p4473
tp4474
Rp4475
aa(lp4476
F-2.1273601181995625
ag2
(g6
S'\xad0Q\xdc\xde\x11\xae?'
p4477
tp4478
Rp4479
aa(lp4480
F-2.1756422635961674
ag2
(g6
S'\x93\x87\xd4\x18C\x04\xae?'
p4481
tp4482
Rp4483
aa(lp4484
F-2.1764627387176647
ag2
(g6
S'\x1f\xc1\xe6\x18`\x9a\xad?'
p4485
tp4486
Rp4487
aa(lp4488
F-2.1125179495019015
ag2
(g6
S'\x81\x9e1!.\x8d\xad?'
p4489
tp4490
Rp4491
aa(lp4492
F-2.1890014541533933
ag2
(g6
S'\x8f\xe4\xe9\xc7\xddl\xad?'
p4493
tp4494
Rp4495
aa(lp4496
F-2.204655662608245
ag2
(g6
S'\xdfP\xa81rD\xad?'
p4497
tp4498
Rp4499
aa(lp4500
F-2.2024959205149424
ag2
(g6
S'~\xca\xdaL\xb9]\xad?'
p4501
tp4502
Rp4503
aa(lp4504
F-2.178094230417546
ag2
(g6
S'r\x93\xf9\xe7~\x13\xad?'
p4505
tp4506
Rp4507
aa(lp4508
F-2.159318912466512
ag2
(g6
S'\xdb3\xa6\x12\xe8f\xac?'
p4509
tp4510
Rp4511
aa(lp4512
F-2.173976227394116
ag2
(g6
S'\xcb\x9bON\xd2\xcb\xac?'
p4513
tp4514
Rp4515
aa(lp4516
F-2.16971508951625
ag2
(g6
S'\xa3\x17\x00+\xbf\xea\xac?'
p4517
tp4518
Rp4519
aa(lp4520
F-2.1808287928898062
ag2
(g6
S'+\xfd`k\x1f\xe8\xac?'
p4521
tp4522
Rp4523
aa(lp4524
F-2.064901503703283
ag2
(g6
S'\x8a\xd3O\xb3"\x98\xac?'
p4525
tp4526
Rp4527
aa(lp4528
F-2.2812876127905124
ag2
(g6
S'\x91\x11vlw\x10\xad?'
p4529
tp4530
Rp4531
aa(lp4532
F-2.0858517883196432
ag2
(g6
S'\x11\x18\x05\\\xbe\xff\xac?'
p4533
tp4534
Rp4535
aa(lp4536
F-2.2745075585915506
ag2
(g6
S'\x9e\xa8*4\xe0\xde\xac?'
p4537
tp4538
Rp4539
aa(lp4540
F-2.1410783699360287
ag2
(g6
S'\x86\xce*\xf3\x11\x10\xad?'
p4541
tp4542
Rp4543
aa(lp4544
F-2.138968781212442
ag2
(g6
S'\xb96\xc6\xbbZ\xb5\xac?'
p4545
tp4546
Rp4547
aa(lp4548
F-2.185499011430126
ag2
(g6
S'\xae\xdf\xb3\xe6\xfd\xf9\xac?'
p4549
tp4550
Rp4551
aa(lp4552
F-2.1487671142003424
ag2
(g6
S'\xcdPal\xaaJ\xad?'
p4553
tp4554
Rp4555
aa(lp4556
F-2.1167350162395717
ag2
(g6
S'\xc5d\xfd\xe0\xa0:\xad?'
p4557
tp4558
Rp4559
aa(lp4560
F-2.112365958652142
ag2
(g6
S"\xd6\x83\x04\xa1'P\xad?"
p4561
tp4562
Rp4563
aa(lp4564
F-2.163033785186233
ag2
(g6
S'Ra\xd2\xf3\xac\xc2\xad?'
p4565
tp4566
Rp4567
aa(lp4568
F-2.138863867332518
ag2
(g6
S'\x9fd\xebeH\xbe\xad?'
p4569
tp4570
Rp4571
aa(lp4572
F-2.163069319144171
ag2
(g6
S'\xc7W \x02>|\xad?'
p4573
tp4574
Rp4575
aa(lp4576
F-2.2554438786075943
ag2
(g6
S':L\x07i\xa3\x92\xad?'
p4577
tp4578
Rp4579
aa(lp4580
F-2.1309511754277293
ag2
(g6
S'\x9a\x134\xb3\xa6t\xad?'
p4581
tp4582
Rp4583
aa(lp4584
F-2.208595062589756
ag2
(g6
S'0U\xe5c\xf8t\xad?'
p4585
tp4586
Rp4587
aa(lp4588
F-2.2089272109876785
ag2
(g6
S'\x12\xb2dOk\xa9\xad?'
p4589
tp4590
Rp4591
aa(lp4592
F-2.172204275471587
ag2
(g6
S'\xa0\x99%@\xf1c\xad?'
p4593
tp4594
Rp4595
aa(lp4596
F-2.1776393940142746
ag2
(g6
S'\x11\xa6\x8b\xfe"\xe6\xad?'
p4597
tp4598
Rp4599
aa(lp4600
F-2.126261754527706
ag2
(g6
S'\x93\\|X! \xae?'
p4601
tp4602
Rp4603
aa(lp4604
F-2.138085196416319
ag2
(g6
S'u\x9bz\x1fOY\xae?'
p4605
tp4606
Rp4607
aa(lp4608
F-2.1203800708159743
ag2
(g6
S'\xae\xac\xe0v\xa4\x95\xae?'
p4609
tp4610
Rp4611
aa(lp4612
F-2.2464894896540906
ag2
(g6
S'xo\xfc\xe4\x06\x7f\xae?'
p4613
tp4614
Rp4615
aa(lp4616
F-2.219945271676263
ag2
(g6
S'N0\xab\xee\xcc\xae\xae?'
p4617
tp4618
Rp4619
aa(lp4620
F-2.106490948919814
ag2
(g6
S'\xef\x88\xdf\x1a9\x84\xaf?'
p4621
tp4622
Rp4623
aa(lp4624
F-2.154179827816384
ag2
(g6
S'\x0c\x1cM\x1e\x1f+\xaf?'
p4625
tp4626
Rp4627
aa(lp4628
F-2.1323757633758573
ag2
(g6
S'\x8aQ\x97\xfd\xa8\x87\xaf?'
p4629
tp4630
Rp4631
aa(lp4632
F-2.138224318689976
ag2
(g6
S'\xa9"\xff\x87_,\xb0?'
p4633
tp4634
Rp4635
aa(lp4636
F-2.0592195502413455
ag2
(g6
S'XIG\xe5\xfd?\xb0?'
p4637
tp4638
Rp4639
aa(lp4640
F-2.1708566360606207
ag2
(g6
S'\x0e:\xeah\xfb\x86\xb0?'
p4641
tp4642
Rp4643
aa(lp4644
F-2.183094404137715
ag2
(g6
S'G\x05\x9a\x82\x14\\\xb0?'
p4645
tp4646
Rp4647
aa(lp4648
F-2.045031980073904
ag2
(g6
S'\x03\xcco\xd8\x80n\xb0?'
p4649
tp4650
Rp4651
aa(lp4652
F-2.175344367804562
ag2
(g6
S'+s\x90\xca\xfd\xac\xb0?'
p4653
tp4654
Rp4655
aa(lp4656
F-2.1209105794568046
ag2
(g6
S'\xd8 l\x1f\x17\x96\xb0?'
p4657
tp4658
Rp4659
aa(lp4660
F-2.1365781169536375
ag2
(g6
S'\xcbBf\xc2\xfe\xad\xb0?'
p4661
tp4662
Rp4663
aa(lp4664
F-2.0832331636997083
ag2
(g6
S'\x1aH8\xe5\xd6q\xb0?'
p4665
tp4666
Rp4667
aa(lp4668
F-2.141540645237793
ag2
(g6
S'\x03\xe2\xf2\xea6a\xb0?'
p4669
tp4670
Rp4671
aa(lp4672
F-2.046024291891943
ag2
(g6
S'a;\xf5\x8c\xfe\x7f\xaf?'
p4673
tp4674
Rp4675
aa(lp4676
F-2.086544621287281
ag2
(g6
S'\r\x85t\xe1\x07\x9f\xaf?'
p4677
tp4678
Rp4679
aa(lp4680
F-2.180955306136742
ag2
(g6
S'\xdct4\x80\xd6E\xaf?'
p4681
tp4682
Rp4683
aa(lp4684
F-2.1037263193874187
ag2
(g6
S'\xd5\xa0q\xfe\xe0H\xaf?'
p4685
tp4686
Rp4687
aa(lp4688
F-2.178787151207187
ag2
(g6
S'o[\xc5\xc82x\xaf?'
p4689
tp4690
Rp4691
aa(lp4692
F-2.046957001931055
ag2
(g6
S'\xa8\x1f\xd3(\x1a\x91\xaf?'
p4693
tp4694
Rp4695
aa(lp4696
F-2.113184221573168
ag2
(g6
S'\xc0\x0c\xfdz\x80\xe4\xae?'
p4697
tp4698
Rp4699
aa(lp4700
F-2.1268545157582084
ag2
(g6
S'\x94&g\xbdt,\xaf?'
p4701
tp4702
Rp4703
aa(lp4704
F-2.0392143991283755
ag2
(g6
S'\x1e6\xa1mwS\xaf?'
p4705
tp4706
Rp4707
aa(lp4708
F-2.04486949961914
ag2
(g6
S'\x0f\x8f\xab\xd2\x02\xe3\xaf?'
p4709
tp4710
Rp4711
aa(lp4712
F-2.0824349156885447
ag2
(g6
S'\xbe\x98\xd2uJ\xfa\xaf?'
p4713
tp4714
Rp4715
aa(lp4716
F-2.133774359051737
ag2
(g6
S'2{L\x9ci\x03\xb0?'
p4717
tp4718
Rp4719
aa(lp4720
F-2.0947673108301945
ag2
(g6
S'\xdf\xb8)\x92\x0fu\xb0?'
p4721
tp4722
Rp4723
aa(lp4724
F-2.074175979533131
ag2
(g6
S'\xd9\xa6\xcd=\xcb\xaa\xb0?'
p4725
tp4726
Rp4727
aa(lp4728
F-2.157866035332256
ag2
(g6
S'K9\xbe\x9c\xde\x99\xb0?'
p4729
tp4730
Rp4731
aa(lp4732
F-2.070869877543792
ag2
(g6
S'u\x03@)\n\xe7\xb0?'
p4733
tp4734
Rp4735
aa(lp4736
F-2.0579871874368294
ag2
(g6
S'\x1e\x8b\x91uV\xfe\xb0?'
p4737
tp4738
Rp4739
aa(lp4740
F-2.201486865013171
ag2
(g6
S'dq\xb6r\x1b\xfa\xb0?'
p4741
tp4742
Rp4743
aa(lp4744
F-2.1255150014497377
ag2
(g6
S"1T5'\xcf&\xb1?"
p4745
tp4746
Rp4747
aa(lp4748
F-2.0793662562695716
ag2
(g6
S'\t\xa6\xf7\x0c\x93\x1b\xb1?'
p4749
tp4750
Rp4751
aa(lp4752
F-2.1156852209263812
ag2
(g6
S'\xa7l_\xcf\x1eS\xb1?'
p4753
tp4754
Rp4755
aa(lp4756
F-2.118610809863564
ag2
(g6
S'\xde\xaa\x19H\x96\x13\xb1?'
p4757
tp4758
Rp4759
aa(lp4760
F-2.111898658174723
ag2
(g6
S'\xd4`\xb6\xba\x18Y\xb1?'
p4761
tp4762
Rp4763
aa(lp4764
F-2.0488212355472513
ag2
(g6
S'\xa0h>\xe3\xa3l\xb1?'
p4765
tp4766
Rp4767
aa(lp4768
F-2.063953730461955
ag2
(g6
S'i\xde\x99t\xd80\xb1?'
p4769
tp4770
Rp4771
aa(lp4772
F-2.222352217794808
ag2
(g6
S'\x84\x7f\x90\x8e\x87\xe5\xb0?'
p4773
tp4774
Rp4775
aa(lp4776
F-2.1694296455865985
ag2
(g6
S'\xa9\xb5\x05\x88\x18(\xb1?'
p4777
tp4778
Rp4779
aa(lp4780
F-2.1113574871474223
ag2
(g6
S'\x85\xad\xc7\t\xa1(\xb1?'
p4781
tp4782
Rp4783
aa(lp4784
F-2.1764200848179147
ag2
(g6
S'\xf1\xef\xed\xe0\xab\x1c\xb1?'
p4785
tp4786
Rp4787
aa(lp4788
F-2.0694181739697264
ag2
(g6
S'\x9f`\x13\xfc\x1a`\xb1?'
p4789
tp4790
Rp4791
aa(lp4792
F-2.149772484251342
ag2
(g6
S'\x8d\xf7\xc3\xd7\xbe4\xb1?'
p4793
tp4794
Rp4795
aa(lp4796
F-2.1523947722022867
ag2
(g6
S'\x99\xf7\x9fV\xa6.\xb1?'
p4797
tp4798
Rp4799
aa(lp4800
F-2.110803617734975
ag2
(g6
S'\x01\x98J\xbf\xaf\xff\xb0?'
p4801
tp4802
Rp4803
aa(lp4804
F-2.1147353994825697
ag2
(g6
S'\x94\xa2k\xa3m\xfb\xb0?'
p4805
tp4806
Rp4807
aa(lp4808
F-2.1400136456239705
ag2
(g6
S'\t\x03\x18\x18\x82\xf4\xb0?'
p4809
tp4810
Rp4811
aa(lp4812
F-2.1584289564366808
ag2
(g6
S'\xa50;\xfa\xf2\x03\xb1?'
p4813
tp4814
Rp4815
aa(lp4816
F-2.1102392706900908
ag2
(g6
S'fD\xf8wY\x1b\xb1?'
p4817
tp4818
Rp4819
aa(lp4820
F-2.052168126165938
ag2
(g6
S'\xa4\xf6V\xe2x[\xb1?'
p4821
tp4822
Rp4823
aa(lp4824
F-2.1410073177052156
ag2
(g6
S'+y\xb8\xc9>N\xb1?'
p4825
tp4826
Rp4827
aa(lp4828
F-2.1137474131164455
ag2
(g6
S'O\x82j\x99\x83)\xb1?'
p4829
tp4830
Rp4831
aa(lp4832
F-2.1243194508691574
ag2
(g6
S'\xd7\x8c\x02\xb0\xc1\xef\xb0?'
p4833
tp4834
Rp4835
aa(lp4836
F-2.0879652617896434
ag2
(g6
S'\t\x8b>\xff\xbb\xc9\xb0?'
p4837
tp4838
Rp4839
aa(lp4840
F-2.0718883633262144
ag2
(g6
S'\xd0<\x90\x16\xdd\xd0\xb0?'
p4841
tp4842
Rp4843
aa(lp4844
F-2.0517338197999555
ag2
(g6
S'\x18cO\x95&\xd9\xb0?'
p4845
tp4846
Rp4847
aa(lp4848
F-2.0604131185922867
ag2
(g6
S'\xc2YN\xa5q\xae\xb0?'
p4849
tp4850
Rp4851
aa(lp4852
F-2.033160041350562
ag2
(g6
S'\xc7\\\xdc\xa9\xde\x03\xb1?'
p4853
tp4854
Rp4855
aa(lp4856
F-2.196511268630687
ag2
(g6
S'\x81\x07G\xa0;\xcc\xb0?'
p4857
tp4858
Rp4859
aa(lp4860
F-2.1126955491807164
ag2
(g6
S'\xca\xb2\xf8\x81\n\x90\xb0?'
p4861
tp4862
Rp4863
aa(lp4864
F-2.0422365284248034
ag2
(g6
S'2\x10\xba\x16\xdb\x7f\xb0?'
p4865
tp4866
Rp4867
aa(lp4868
F-2.1024017527588033
ag2
(g6
S']w3>8}\xb0?'
p4869
tp4870
Rp4871
aa(lp4872
F-2.0493903687003185
ag2
(g6
S't\xc3\xcd\xbf\xcf\x86\xb0?'
p4873
tp4874
Rp4875
aa(lp4876
F-2.2250522750426858
ag2
(g6
S'8\x03\xb1S\xe5\x9c\xb0?'
p4877
tp4878
Rp4879
aa(lp4880
F-2.057854703191201
ag2
(g6
S's\x90\xced\x87\xac\xb0?'
p4881
tp4882
Rp4883
aa(lp4884
F-2.066071746566795
ag2
(g6
S'3\xc0\xa6\x98O\xfc\xb0?'
p4885
tp4886
Rp4887
aa(lp4888
F-2.033352003922271
ag2
(g6
S'\x98U\xbf\xb7\x7f\x10\xb1?'
p4889
tp4890
Rp4891
aa(lp4892
F-2.0965173012779643
ag2
(g6
S'\xf5m\xbdM\xc0\xda\xb0?'
p4893
tp4894
Rp4895
aa(lp4896
F-2.155920684810432
ag2
(g6
S'r\x9b\xf4\x95\xee\xaf\xb0?'
p4897
tp4898
Rp4899
aa(lp4900
F-2.1204403479588265
ag2
(g6
S'\x92\x0c+\xae\x8b\x90\xb0?'
p4901
tp4902
Rp4903
aa(lp4904
F-2.0962421141946783
ag2
(g6
S'w\x9f\xdb#\x9e\x8f\xb0?'
p4905
tp4906
Rp4907
aa(lp4908
F-2.1445626412456473
ag2
(g6
S'\xf5#\x11\x1fl\x9b\xb0?'
p4909
tp4910
Rp4911
aa(lp4912
F-2.1862501690366436
ag2
(g6
S'[\xea\xfduN\xa5\xb0?'
p4913
tp4914
Rp4915
aa(lp4916
F-2.1015690797851296
ag2
(g6
S'o\xfe\x86"\xc4h\xb0?'
p4917
tp4918
Rp4919
aa(lp4920
F-2.1216917004652234
ag2
(g6
S'\xc7\xcfq\xc3\xc9/\xb0?'
p4921
tp4922
Rp4923
aa(lp4924
F-2.144423564810645
ag2
(g6
S'\xb5\x13\xf94}\x15\xb0?'
p4925
tp4926
Rp4927
aa(lp4928
F-2.170311648598517
ag2
(g6
S'\x15\xd9^ \xc2\xdc\xaf?'
p4929
tp4930
Rp4931
aa(lp4932
F-2.054671742846868
ag2
(g6
S'\xe0\xfd\xf0\xb3|\x9b\xaf?'
p4933
tp4934
Rp4935
aa(lp4936
F-2.1732168336705477
ag2
(g6
S'\xe7\xd68\xf6\xfe\x0f\xb0?'
p4937
tp4938
Rp4939
aa(lp4940
F-2.1280393893458265
ag2
(g6
S'\xfbL\x84\x8d\xf3\xae\xaf?'
p4941
tp4942
Rp4943
aa(lp4944
F-2.165381373830324
ag2
(g6
S'\xccg\x82R\x9aj\xaf?'
p4945
tp4946
Rp4947
aa(lp4948
F-2.157511448138176
ag2
(g6
S'q!\x13\xfel;\xaf?'
p4949
tp4950
Rp4951
aa(lp4952
F-2.112202562990942
ag2
(g6
S'"WN.\xd5\x1d\xaf?'
p4953
tp4954
Rp4955
aa(lp4956
F-2.242271354075725
ag2
(g6
S'R\xd5o\x13\xf4#\xaf?'
p4957
tp4958
Rp4959
aa(lp4960
F-2.1867134941136266
ag2
(g6
S'-\xf5\x98p\xa4V\xaf?'
p4961
tp4962
Rp4963
aa(lp4964
F-2.1378580811364754
ag2
(g6
S'|\xa9\xa6\xe0z\xf3\xae?'
p4965
tp4966
Rp4967
aa(lp4968
F-2.115151057732144
ag2
(g6
S'\xf2/\xf1\xac\x05\xc8\xae?'
p4969
tp4970
Rp4971
aa(lp4972
F-2.116709338978967
ag2
(g6
S'X\x9b\xc7K\x92\xf8\xad?'
p4973
tp4974
Rp4975
aa(lp4976
F-2.101336959998093
ag2
(g6
S'\xd4r0\x99\r\xd3\xad?'
p4977
tp4978
Rp4979
aa(lp4980
F-2.0787147247885027
ag2
(g6
S'\xc2\xbf\xfe\x9f\r\xf8\xad?'
p4981
tp4982
Rp4983
aa(lp4984
F-2.1771703030220833
ag2
(g6
S'=\x8eyu\xd9\x86\xad?'
p4985
tp4986
Rp4987
aa(lp4988
F-2.108233989411713
ag2
(g6
S'4}\xc4\xcbc\x91\xad?'
p4989
tp4990
Rp4991
aa(lp4992
F-2.1218705387332366
ag2
(g6
S'm\xbb-I\xf4\xba\xad?'
p4993
tp4994
Rp4995
aa(lp4996
F-2.1493479241964537
ag2
(g6
S'\xfd\x81\x1ed\xd2\x07\xad?'
p4997
tp4998
Rp4999
aa(lp5000
F-2.1193750931605857
ag2
(g6
S'\x7f\x16#\xa5\xb5\xea\xac?'
p5001
tp5002
Rp5003
aa(lp5004
F-2.1279455662866553
ag2
(g6
S'x$\xc8QPa\xad?'
p5005
tp5006
Rp5007
aa(lp5008
F-2.166578138350668
ag2
(g6
S'\xb3pt\xf6fY\xad?'
p5009
tp5010
Rp5011
aa(lp5012
F-2.1417195708006713
ag2
(g6
S'\x94\xa1\x8f\xad~9\xad?'
p5013
tp5014
Rp5015
aa(lp5016
F-2.1286378177526357
ag2
(g6
S'J\xc0\xe8ADX\xad?'
p5017
tp5018
Rp5019
aa(lp5020
F-2.2320078432334545
ag2
(g6
S'B\x96)\x13(\x96\xad?'
p5021
tp5022
Rp5023
aa(lp5024
F-2.176248761402698
ag2
(g6
S'"\x0e_N_\x93\xad?'
p5025
tp5026
Rp5027
aa(lp5028
F-2.135127056898075
ag2
(g6
S'5B\x93\xe6fY\xad?'
p5029
tp5030
Rp5031
aa(lp5032
F-2.1970105535564173
ag2
(g6
S'E\xdd\xd4\x8e\xb3\xff\xac?'
p5033
tp5034
Rp5035
aa(lp5036
F-2.1399656512913445
ag2
(g6
S'\xe6\xcb\xf4\x97C\xc8\xac?'
p5037
tp5038
Rp5039
aa(lp5040
F-2.1726399891286636
ag2
(g6
S'\x0cz\xf2\x02\xddy\xac?'
p5041
tp5042
Rp5043
aa(lp5044
F-2.227823139112751
ag2
(g6
S'*\x88e>\xbd\x0c\xac?'
p5045
tp5046
Rp5047
aa(lp5048
F-2.357130284019726
ag2
(g6
S'\xfdd=\x8c3g\xac?'
p5049
tp5050
Rp5051
aa(lp5052
F-2.168159553820706
ag2
(g6
S'\x07\xc5\xca\xdb\x05.\xad?'
p5053
tp5054
Rp5055
aa(lp5056
F-2.1565257159470885
ag2
(g6
S':}VW\xca\x08\xad?'
p5057
tp5058
Rp5059
aa(lp5060
F-2.260260233386129
ag2
(g6
S'=\xe3}\x1f\xe1I\xac?'
p5061
tp5062
Rp5063
aa(lp5064
F-2.2542779896829765
ag2
(g6
S'n\xc8\xe6\xfej\xf1\xac?'
p5065
tp5066
Rp5067
aa(lp5068
F-2.1270334359021312
ag2
(g6
S'\x06\x1f\xce\xcd\x8d\xe2\xac?'
p5069
tp5070
Rp5071
aa(lp5072
F-2.1731325125584853
ag2
(g6
S'\x88W\x1c\x9b\xce\x9e\xac?'
p5073
tp5074
Rp5075
aa(lp5076
F-2.169590819441394
ag2
(g6
S'\xbe\x82\x9a\x17\x16\xe4\xac?'
p5077
tp5078
Rp5079
aa(lp5080
F-1.9929723990967476
ag2
(g6
S'\xd1\xf9\n\xfa\xe5\xd0\xac?'
p5081
tp5082
Rp5083
aa(lp5084
F-2.1729710476135726
ag2
(g6
S'\x97#\x8d\xfb\xff\x8d\xad?'
p5085
tp5086
Rp5087
aa(lp5088
F-2.1057466138138494
ag2
(g6
S'\xa1Je\xd8\x80$\xad?'
p5089
tp5090
Rp5091
aa(lp5092
F-2.113829198153753
ag2
(g6
S'\xf52j8\x7f\xbd\xac?'
p5093
tp5094
Rp5095
aa(lp5096
F-2.169583901745091
ag2
(g6
S'g\xber\x03gT\xac?'
p5097
tp5098
Rp5099
aa(lp5100
F-2.132932433940602
ag2
(g6
S'\x13t\xda\xd5\xb1\xaa\xab?'
p5101
tp5102
Rp5103
aa(lp5104
F-2.237136767880359
ag2
(g6
S'\xbd\x1eN6\x98\x8a\xab?'
p5105
tp5106
Rp5107
aa(lp5108
F-2.170130716683687
ag2
(g6
S'\x94-\xa3\xfd\x9c>\xab?'
p5109
tp5110
Rp5111
aa(lp5112
F-2.1554854213344314
ag2
(g6
S'\x93\xb9\xb0n\xf6\x88\xab?'
p5113
tp5114
Rp5115
aa(lp5116
F-2.220363034263187
ag2
(g6
S'D$p\xcd\x86\xca\xab?'
p5117
tp5118
Rp5119
aa(lp5120
F-2.1851405188328545
ag2
(g6
S'f\x04|`\xc1\xb8\xab?'
p5121
tp5122
Rp5123
aa(lp5124
F-2.218239393539111
ag2
(g6
S'u\x01\x1d\xa3\x1f\xb7\xab?'
p5125
tp5126
Rp5127
aa(lp5128
F-2.22025250083682
ag2
(g6
S'\x02nM\xaa#\xfb\xab?'
p5129
tp5130
Rp5131
aa(lp5132
F-2.128210986585432
ag2
(g6
S'YM\xf8\xe7\xc3\xd7\xab?'
p5133
tp5134
Rp5135
aa(lp5136
F-2.238957309065159
ag2
(g6
S'\xf6\x1a\x89\x91\xdd\xc1\xab?'
p5137
tp5138
Rp5139
aa(lp5140
F-2.1756193375682327
ag2
(g6
S';v\xea#t@\xab?'
p5141
tp5142
Rp5143
aa(lp5144
F-2.170082085320099
ag2
(g6
S'\x99 0\nl\x11\xab?'
p5145
tp5146
Rp5147
aa(lp5148
F-2.2631820099985887
ag2
(g6
S'[\\\x90q\xd9\x80\xab?'
p5149
tp5150
Rp5151
aa(lp5152
F-2.230941546413687
ag2
(g6
S'Z\xd91\xf7\xe2w\xab?'
p5153
tp5154
Rp5155
aa(lp5156
F-2.146660168434231
ag2
(g6
S'\xce\xdct>\x9f\x88\xab?'
p5157
tp5158
Rp5159
aa(lp5160
F-2.218295175628295
ag2
(g6
S'\xd7~\xab\xc8\xb9:\xab?'
p5161
tp5162
Rp5163
aa(lp5164
F-2.2706507275299255
ag2
(g6
S'\xa4>\x03\xf4\x17Y\xab?'
p5165
tp5166
Rp5167
aa(lp5168
F-2.229913837208364
ag2
(g6
S'~P\xe0J\xeaF\xab?'
p5169
tp5170
Rp5171
aa(lp5172
F-2.096837919751221
ag2
(g6
S"'|t\xad^\xbb\xab?"
p5173
tp5174
Rp5175
aa(lp5176
F-2.251206503053019
ag2
(g6
S'\xe3,A\xda\xabE\xab?'
p5177
tp5178
Rp5179
aa(lp5180
F-2.219226072287703
ag2
(g6
S'\xd3\xcd\xbc\xa0:o\xab?'
p5181
tp5182
Rp5183
aa(lp5184
F-2.1735032237793863
ag2
(g6
S'/\xa5\xc7\xb6\x87B\xab?'
p5185
tp5186
Rp5187
aa(lp5188
F-2.19513160041046
ag2
(g6
S'\xcbc\x90@v"\xab?'
p5189
tp5190
Rp5191
aa(lp5192
F-2.2357290494869186
ag2
(g6
S'\x02\xb3\x9c\x9aS\xf4\xaa?'
p5193
tp5194
Rp5195
aa(lp5196
F-2.136824968790537
ag2
(g6
S'"\x06\xbd\xc6\xe4\x8b\xab?'
p5197
tp5198
Rp5199
aa(lp5200
F-2.210250529993009
ag2
(g6
S'\xdb\xea\x87\x11CM\xab?'
p5201
tp5202
Rp5203
aa(lp5204
F-2.1760231945487982
ag2
(g6
S'F\xd5IeG\x95\xab?'
p5205
tp5206
Rp5207
aa(lp5208
F-2.1386030134142553
ag2
(g6
S'\x81\xb7\xb3K\x87M\xac?'
p5209
tp5210
Rp5211
aa(lp5212
F-2.1688071507346534
ag2
(g6
S"3hq\xd16'\xac?"
p5213
tp5214
Rp5215
aa(lp5216
F-2.2039500355042185
ag2
(g6
S'--9?%\xe0\xab?'
p5217
tp5218
Rp5219
aa(lp5220
F-2.1488115035130244
ag2
(g6
S'\xec\xcd\x88\x14\xa9T\xac?'
p5221
tp5222
Rp5223
aa(lp5224
F-2.211396078840325
ag2
(g6
S'f_\xe0R\xa7V\xac?'
p5225
tp5226
Rp5227
aa(lp5228
F-2.200622565448269
ag2
(g6
S'\x01\x92H6oI\xac?'
p5229
tp5230
Rp5231
aa(lp5232
F-2.1670543968096725
ag2
(g6
S'[\xfd\xffC\xac\xc7\xac?'
p5233
tp5234
Rp5235
aa(lp5236
F-2.1963366008734027
ag2
(g6
S'\x80\xf6\x07\xc6;\xaa\xac?'
p5237
tp5238
Rp5239
aa(lp5240
F-2.205666725078543
ag2
(g6
S'X&\x95%CP\xac?'
p5241
tp5242
Rp5243
aa(lp5244
F-2.1168325084799013
ag2
(g6
S'\xa6U\xf5\xe5#;\xac?'
p5245
tp5246
Rp5247
aa(lp5248
F-2.1623844368428573
ag2
(g6
S'KGmt\x15\xa5\xac?'
p5249
tp5250
Rp5251
aa(lp5252
F-2.125615015432752
ag2
(g6
S'\xf4P\x94\xe9a\x8c\xac?'
p5253
tp5254
Rp5255
aa(lp5256
F-2.2178166346394166
ag2
(g6
S'\xc0x\xd1\xac\x0c\xe1\xab?'
p5257
tp5258
Rp5259
aa(lp5260
F-2.1396348187648706
ag2
(g6
S'(\x11\x87\x8d\xaf\xd3\xab?'
p5261
tp5262
Rp5263
aa(lp5264
F-2.1849019638966154
ag2
(g6
S'I\xcbu\x90|\xb6\xab?'
p5265
tp5266
Rp5267
aa(lp5268
F-2.1796795449438724
ag2
(g6
S'\x13\x88\x02\xc7y\xdd\xab?'
p5269
tp5270
Rp5271
aa(lp5272
F-2.090640638416976
ag2
(g6
S'\x90\x1c\xbb\xd7\xd7\x00\xac?'
p5273
tp5274
Rp5275
aa(lp5276
F-2.1558202099898804
ag2
(g6
S'\x1e\n\xa4\xa5\xb9\xed\xab?'
p5277
tp5278
Rp5279
aa(lp5280
F-2.1350141830806835
ag2
(g6
S'\xe1/g\xde\xcb\xc4\xab?'
p5281
tp5282
Rp5283
aa(lp5284
F-2.1416425984415666
ag2
(g6
S'\xcd\n\x84\\\x99E\xab?'
p5285
tp5286
Rp5287
aa(lp5288
F-2.2241173643755348
ag2
(g6
S'@\xce;\xf1RQ\xab?'
p5289
tp5290
Rp5291
aa(lp5292
F-2.1395004706899856
ag2
(g6
S'F\xe3\xa9\xaca\x01\xab?'
p5293
tp5294
Rp5295
aa(lp5296
F-2.1465341300436984
ag2
(g6
S'j\xf5\x1a\xf3\xe9a\xab?'
p5297
tp5298
Rp5299
aa(lp5300
F-2.2344934314747986
ag2
(g6
S'\xab\xcd\xfe\xfc\x08o\xab?'
p5301
tp5302
Rp5303
aa(lp5304
F-2.169522573309764
ag2
(g6
S'o\xa5\xb3q[\xfd\xaa?'
p5305
tp5306
Rp5307
aa(lp5308
F-2.1359745711844282
ag2
(g6
S'u\xb5G6\xc6\x9d\xaa?'
p5309
tp5310
Rp5311
aa(lp5312
F-2.268714962272974
ag2
(g6
S'un\xd8\x07\x94\xaa\xaa?'
p5313
tp5314
Rp5315
aa(lp5316
F-2.1739098999076396
ag2
(g6
S'\x04t\xa3\xf1St\xaa?'
p5317
tp5318
Rp5319
aa(lp5320
F-2.1837174215812363
ag2
(g6
S'\xba]C\x8c\x10\x83\xaa?'
p5321
tp5322
Rp5323
aa(lp5324
F-2.194134173613124
ag2
(g6
S'\xde\x05i\xd0yl\xaa?'
p5325
tp5326
Rp5327
aa(lp5328
F-2.1875397034894974
ag2
(g6
S'\xd6\xd4\xf3\xc4\xb1\\\xaa?'
p5329
tp5330
Rp5331
aa(lp5332
F-2.318691031212257
ag2
(g6
S'A\x92W\x9f\xc6\x12\xaa?'
p5333
tp5334
Rp5335
aa(lp5336
F-2.322682588914264
ag2
(g6
S'\xb7\xa8\xc0P\xd4\xc4\xa9?'
p5337
tp5338
Rp5339
aa(lp5340
F-2.231435597867543
ag2
(g6
S'K}\xcd\x1e\xfeS\xa9?'
p5341
tp5342
Rp5343
aa(lp5344
F-2.2494405435495866
ag2
(g6
S'E\xcf#hId\xa9?'
p5345
tp5346
Rp5347
aa(lp5348
F-2.3454601365100802
ag2
(g6
S'\xdd\xdb\x11}\x13\xac\xa8?'
p5349
tp5350
Rp5351
aa(lp5352
F-2.271499967940118
ag2
(g6
S'\x8b\xf8\x86\xde\xa8U\xa9?'
p5353
tp5354
Rp5355
aa(lp5356
F-2.1873124991079944
ag2
(g6
S'\x8emI>y\xbc\xa9?'
p5357
tp5358
Rp5359
aa(lp5360
F-2.1392469849840734
ag2
(g6
S'zeN\xaa\x97\xf0\xa9?'
p5361
tp5362
Rp5363
aa(lp5364
F-2.2613583493904175
ag2
(g6
S'\xba-\xaa\x8b\x83\x1c\xaa?'
p5365
tp5366
Rp5367
aa(lp5368
F-2.147549714936964
ag2
(g6
S'\xbbY"\xd0`N\xaa?'
p5369
tp5370
Rp5371
aa(lp5372
F-2.130804780417972
ag2
(g6
S'JM\xb8\xae\x1e$\xaa?'
p5373
tp5374
Rp5375
aa(lp5376
F-2.1647677859813754
ag2
(g6
S'\xb0~\xf3~\xf6\x1a\xaa?'
p5377
tp5378
Rp5379
aa(lp5380
F-2.1647763725970126
ag2
(g6
S"\xf2\xa0\xab'\x0f\x92\xa9?"
p5381
tp5382
Rp5383
aa(lp5384
F-2.123187765615303
ag2
(g6
S'\xda0\xeb\xf0\x1f\x85\xa9?'
p5385
tp5386
Rp5387
aa(lp5388
F-2.2050376928495683
ag2
(g6
S'\xb8\xb2\x08\xeb\xben\xa9?'
p5389
tp5390
Rp5391
aa(lp5392
F-2.1615123588311547
ag2
(g6
S'\xa7+.\x02\xedD\xa9?'
p5393
tp5394
Rp5395
aa(lp5396
F-2.2692783868789297
ag2
(g6
S'F\xa7T7\x1cA\xa9?'
p5397
tp5398
Rp5399
aa(lp5400
F-2.1602189609623506
ag2
(g6
S'\ne=\xb7\xa5i\xa9?'
p5401
tp5402
Rp5403
aa(lp5404
F-2.202269249887571
ag2
(g6
S'\xcdVb\xf9\xb9\x02\xa9?'
p5405
tp5406
Rp5407
aa(lp5408
F-2.226055579155079
ag2
(g6
S'\x07i*\xb4\xfb\xcd\xa8?'
p5409
tp5410
Rp5411
aa(lp5412
F-2.238319463271295
ag2
(g6
S'\x12\xd8\xd1e\xff\r\xa9?'
p5413
tp5414
Rp5415
aa(lp5416
F-2.2514982720124888
ag2
(g6
S'\x88\x9e\x97\xc0<M\xa8?'
p5417
tp5418
Rp5419
aa(lp5420
F-2.25390962449895
ag2
(g6
S'9S+ca@\xa8?'
p5421
tp5422
Rp5423
aa(lp5424
F-2.140399219174882
ag2
(g6
S'v\x8fB\xbbXh\xa8?'
p5425
tp5426
Rp5427
aa(lp5428
F-2.3253731896999295
ag2
(g6
S'\x00B\x95\x0c\xf0 \xa8?'
p5429
tp5430
Rp5431
aa(lp5432
F-2.0938849010441367
ag2
(g6
S'\x96\xe6\xba\x05\xff\xf6\xa7?'
p5433
tp5434
Rp5435
aa(lp5436
F-2.1558502721997708
ag2
(g6
S'2\xc8W\xe2>\xf4\xa7?'
p5437
tp5438
Rp5439
aa(lp5440
F-2.316110795767543
ag2
(g6
S'\xd6$\xf4`\xb5\xb3\xa7?'
p5441
tp5442
Rp5443
aa(lp5444
F-2.216980039524248
ag2
(g6
S"\x03\xc8\xfa\x01'X\xa7?"
p5445
tp5446
Rp5447
aa(lp5448
F-2.176205829725718
ag2
(g6
S'T\xb5\x85\xae9\xfb\xa6?'
p5449
tp5450
Rp5451
aa(lp5452
F-2.2688234292894576
ag2
(g6
S'9N\xbefr\xd1\xa6?'
p5453
tp5454
Rp5455
aa(lp5456
F-2.258800334219062
ag2
(g6
S'3\x9f+\xed\x8e\xa6\xa6?'
p5457
tp5458
Rp5459
aa(lp5460
F-2.1799672598004713
ag2
(g6
S'H\x8f<\x9c\xac\xa1\xa6?'
p5461
tp5462
Rp5463
aa(lp5464
F-2.210018587168034
ag2
(g6
S'\xbf5\xcf\rK\xaa\xa6?'
p5465
tp5466
Rp5467
aa(lp5468
F-2.2320255695121785
ag2
(g6
S'\x10\xa2\x12\xd3\xb7s\xa6?'
p5469
tp5470
Rp5471
aa(lp5472
F-2.310240370018207
ag2
(g6
S'\x98\xde\xf4~\x93\x8b\xa6?'
p5473
tp5474
Rp5475
aa(lp5476
F-2.1915863419638226
ag2
(g6
S'f\xde\xbb\xfeSO\xa6?'
p5477
tp5478
Rp5479
aa(lp5480
F-2.1933451309467187
ag2
(g6
S'\x81\x8a{!\xd4\x86\xa6?'
p5481
tp5482
Rp5483
aa(lp5484
F-2.222106666626924
ag2
(g6
S'\xc3\xab:V\x08_\xa6?'
p5485
tp5486
Rp5487
aa(lp5488
F-2.2229207701931024
ag2
(g6
S'\xc6I\xad\xf3Q\xb4\xa6?'
p5489
tp5490
Rp5491
aa(lp5492
F-2.2387980041747118
ag2
(g6
S'?\xf9\x9f\xc5\x9f\xb2\xa6?'
p5493
tp5494
Rp5495
aa(lp5496
F-2.219915644728056
ag2
(g6
S'5j\xf4\xac\x10\xbf\xa6?'
p5497
tp5498
Rp5499
aa(lp5500
F-2.3222020678429365
ag2
(g6
S'\x07\xa2J\x8f|\xa7\xa6?'
p5501
tp5502
Rp5503
aa(lp5504
F-2.206079653242616
ag2
(g6
S'\x05\xf3\x05$\xa0\xb2\xa6?'
p5505
tp5506
Rp5507
aa(lp5508
F-2.232045089268805
ag2
(g6
S'$\xef\t\r\\\x16\xa7?'
p5509
tp5510
Rp5511
aa(lp5512
F-2.1750512770559185
ag2
(g6
S'\x8fLcYoS\xa7?'
p5513
tp5514
Rp5515
aa(lp5516
F-2.2499960766408766
ag2
(g6
S'*1\x16\x1d\xb6?\xa7?'
p5517
tp5518
Rp5519
aa(lp5520
F-2.2053033187062367
ag2
(g6
S'\xf3+\x97\x1cCP\xa7?'
p5521
tp5522
Rp5523
aa(lp5524
F-2.2638828275085556
ag2
(g6
S'\x8a+\xae\xcf\xad\xfd\xa6?'
p5525
tp5526
Rp5527
aa(lp5528
F-2.206087610245078
ag2
(g6
S'\xf4\x9f\x0eP_\xf9\xa6?'
p5529
tp5530
Rp5531
aa(lp5532
F-2.166444528742362
ag2
(g6
S'\x83\x155\xa6Dd\xa7?'
p5533
tp5534
Rp5535
aa(lp5536
F-2.3314377755734363
ag2
(g6
S'\x10nyg3\xe9\xa6?'
p5537
tp5538
Rp5539
aa(lp5540
F-2.2719252265656174
ag2
(g6
S'V*\xa5\xca\xe3\xc5\xa6?'
p5541
tp5542
Rp5543
aa(lp5544
F-2.293740482302201
ag2
(g6
S'\xcc\xeb\xab\x1au\xd3\xa6?'
p5545
tp5546
Rp5547
aa(lp5548
F-2.312632574676554
ag2
(g6
S'N|C\x0c\x1d\xcd\xa6?'
p5549
tp5550
Rp5551
aa(lp5552
F-2.295420929733462
ag2
(g6
S'\xe4\x08\xbd\n\xa9\x93\xa6?'
p5553
tp5554
Rp5555
aa(lp5556
F-2.297419895454813
ag2
(g6
S'\xa2\xb0\xba\x0c\xd6\x8e\xa6?'
p5557
tp5558
Rp5559
aa(lp5560
F-2.207381393065855
ag2
(g6
S'(.a\xe5:\xd8\xa6?'
p5561
tp5562
Rp5563
aa(lp5564
F-2.2452506655301474
ag2
(g6
S'\xa5\xd0\xf6\xba\x16}\xa7?'
p5565
tp5566
Rp5567
aa(lp5568
F-2.2467907530215543
ag2
(g6
S'\xcd\x10\x8e\x19.\t\xa7?'
p5569
tp5570
Rp5571
aa(lp5572
F-2.109134643375859
ag2
(g6
S'Xq*\x16\xc9*\xa7?'
p5573
tp5574
Rp5575
aa(lp5576
F-2.1802333301960557
ag2
(g6
S'{\xb2\xe6S\x13\x11\xa7?'
p5577
tp5578
Rp5579
aa(lp5580
F-2.293370745332522
ag2
(g6
S'\x07\x83&~\x1a/\xa7?'
p5581
tp5582
Rp5583
aa(lp5584
F-2.1877768560481154
ag2
(g6
S'\x88\x98\xd2\x82\xa1\xf8\xa6?'
p5585
tp5586
Rp5587
aa(lp5588
F-2.2433361831543945
ag2
(g6
S'x\x87\xaf\x08\r&\xa7?'
p5589
tp5590
Rp5591
aa(lp5592
F-2.229706290078523
ag2
(g6
S'`;\x9d\x88\xeb\xe6\xa6?'
p5593
tp5594
Rp5595
aa(lp5596
F-2.2294159613048556
ag2
(g6
S'^P\xe6h\xccd\xa7?'
p5597
tp5598
Rp5599
aa(lp5600
F-2.2559682566935066
ag2
(g6
S'0\x07\x00*EA\xa7?'
p5601
tp5602
Rp5603
aa(lp5604
F-2.2100191869911665
ag2
(g6
S'\xbbZ\xe7\\\x12S\xa7?'
p5605
tp5606
Rp5607
aa(lp5608
F-2.176937388611427
ag2
(g6
S'\x0c\xeeD\xea})\xa7?'
p5609
tp5610
Rp5611
aa(lp5612
F-2.2682941514452897
ag2
(g6
S'h\r\x07\xeeH\xdc\xa6?'
p5613
tp5614
Rp5615
aa(lp5616
F-2.2315677711071618
ag2
(g6
S'\x16\xe7\xfdA\xffB\xa7?'
p5617
tp5618
Rp5619
aa(lp5620
F-2.2320549679993613
ag2
(g6
S'\xa2\x88\xe2\xf2)\xb3\xa7?'
p5621
tp5622
Rp5623
aa(lp5624
F-2.3165600546188037
ag2
(g6
S'\x8b\xca\xc1\xe3F\x19\xa8?'
p5625
tp5626
Rp5627
aa(lp5628
F-2.2095772315334896
ag2
(g6
S'\xc4%\x9a~/A\xa8?'
p5629
tp5630
Rp5631
aa(lp5632
F-2.1440486119969324
ag2
(g6
S'\x8a\xc8\x02I\t\x11\xa8?'
p5633
tp5634
Rp5635
aa(lp5636
F-2.256217073403878
ag2
(g6
S'i\xae\x94`\xe4\n\xa8?'
p5637
tp5638
Rp5639
aa(lp5640
F-2.3558125639493643
ag2
(g6
S'\x91[\xcf\n\xaf\xbb\xa7?'
p5641
tp5642
Rp5643
aa(lp5644
F-2.2969703877800987
ag2
(g6
S'\xe2\xe5U\x86\x98\x84\xa7?'
p5645
tp5646
Rp5647
aa(lp5648
F-2.178141885688475
ag2
(g6
S'm\xe8\x91\xd8\x8c\xeb\xa7?'
p5649
tp5650
Rp5651
aa(lp5652
F-2.3245031714552504
ag2
(g6
S'\x90\xae\xf8\x87\xcd\xc5\xa7?'
p5653
tp5654
Rp5655
aa(lp5656
F-2.226892050111337
ag2
(g6
S'\x0f\xc0\x93\x13\xb13\xa8?'
p5657
tp5658
Rp5659
aa(lp5660
F-2.1999573688396
ag2
(g6
S'\xb9d\xe9c\x82\x13\xa8?'
p5661
tp5662
Rp5663
aa(lp5664
F-2.32881263871948
ag2
(g6
S'\x91XZW\x96\xec\xa7?'
p5665
tp5666
Rp5667
aa(lp5668
F-2.2679802036103314
ag2
(g6
S'd\x87y\xe5a\x1c\xa8?'
p5669
tp5670
Rp5671
aa(lp5672
F-2.2699016363185933
ag2
(g6
S'\x17\x99\x95\xc8\xf3u\xa7?'
p5673
tp5674
Rp5675
aa(lp5676
F-2.173468719569723
ag2
(g6
S'\xe9\x16:\xf3\xb3\xaa\xa7?'
p5677
tp5678
Rp5679
aa(lp5680
F-2.161812664963436
ag2
(g6
S'}\xba\xe2\xf6`|\xa7?'
p5681
tp5682
Rp5683
aa(lp5684
F-2.2164857205607698
ag2
(g6
S'\xae\xd1\xdc\xe2\xa2\xe6\xa7?'
p5685
tp5686
Rp5687
aa(lp5688
F-2.2108415577697533
ag2
(g6
S'\xcdI\x94\xa7\xa6\xc0\xa7?'
p5689
tp5690
Rp5691
aa(lp5692
F-2.228456518474672
ag2
(g6
S'\x07]\x083\xd7\x85\xa7?'
p5693
tp5694
Rp5695
aa(lp5696
F-2.032631176224442
ag2
(g6
S'\xe2\xc0\xc7\xa9\xc9\xf7\xa7?'
p5697
tp5698
Rp5699
aa(lp5700
F-2.205793423107142
ag2
(g6
S'9,\xb7\xc10[\xa8?'
p5701
tp5702
Rp5703
aa(lp5704
F-2.204569340882046
ag2
(g6
S'5\xc9\xe8\xd9%#\xa8?'
p5705
tp5706
Rp5707
aa(lp5708
F-2.194263648095983
ag2
(g6
S'\xb4\xaa\x81\xc5\xcer\xa8?'
p5709
tp5710
Rp5711
aa(lp5712
F-2.211859808371779
ag2
(g6
S'^g\xfd=\x1d\xc8\xa8?'
p5713
tp5714
Rp5715
aa(lp5716
F-2.169618324352455
ag2
(g6
S'\xd0\xa0<\xe5\xe1t\xa8?'
p5717
tp5718
Rp5719
aa(lp5720
F-2.112132845483585
ag2
(g6
S'\xeftP\x0fA\x13\xa8?'
p5721
tp5722
Rp5723
aa(lp5724
F-2.156006444798353
ag2
(g6
S'R\xfb\x1be\x14m\xa8?'
p5725
tp5726
Rp5727
aa(lp5728
F-2.142048485247524
ag2
(g6
S'rB*\xbf\xd3\x9e\xa8?'
p5729
tp5730
Rp5731
aa(lp5732
F-2.1758579993535263
ag2
(g6
S'\t[\x1a\xa3\x12I\xa8?'
p5733
tp5734
Rp5735
aa(lp5736
F-2.1813264246313744
ag2
(g6
S'\x97\xf5\x90\x97\x80\\\xa8?'
p5737
tp5738
Rp5739
aa(lp5740
F-2.2194223361001235
ag2
(g6
S'U\x8c\xfe\xea\xd4\x1c\xa8?'
p5741
tp5742
Rp5743
aa(lp5744
F-2.2490017116068857
ag2
(g6
S'[d\xdc\xcfEg\xa8?'
p5745
tp5746
Rp5747
aa(lp5748
F-2.301392736691693
ag2
(g6
S'\x86H\x87\xa1\x80-\xa8?'
p5749
tp5750
Rp5751
aa(lp5752
F-2.2406990790080257
ag2
(g6
S'\xac=\xfa\x1e\xf5{\xa8?'
p5753
tp5754
Rp5755
aa(lp5756
F-2.2525039823216644
ag2
(g6
S'\x01{!\x82\xfb\x0c\xa8?'
p5757
tp5758
Rp5759
aa(lp5760
F-2.2165809366555305
ag2
(g6
S'n\x07\xa5<6\xf2\xa7?'
p5761
tp5762
Rp5763
aa(lp5764
F-2.2741921727842764
ag2
(g6
S'5R\x7f\xe7\xcd\x9a\xa7?'
p5765
tp5766
Rp5767
aa(lp5768
F-2.23467394686314
ag2
(g6
S'y\xdf\xd9~y\x10\xa7?'
p5769
tp5770
Rp5771
aa(lp5772
F-2.302012485854925
ag2
(g6
S'}Q\x0ft\x1b(\xa7?'
p5773
tp5774
Rp5775
aa(lp5776
F-2.2631450537528868
ag2
(g6
S"h'/\xfd\xa7%\xa7?"
p5777
tp5778
Rp5779
aa(lp5780
F-2.33533174825438
ag2
(g6
S'+t\x926\xd2j\xa7?'
p5781
tp5782
Rp5783
aa(lp5784
F-2.164143146797102
ag2
(g6
S'fI\x91\x1e\x9f9\xa7?'
p5785
tp5786
Rp5787
aa(lp5788
F-2.1855040228202443
ag2
(g6
S'\x95\xfc\x9e\xb0\x0eY\xa7?'
p5789
tp5790
Rp5791
aa(lp5792
F-2.1962667708689976
ag2
(g6
S'\x90\xc6\x81\x89\x0e6\xa7?'
p5793
tp5794
Rp5795
aa(lp5796
F-2.3017042511963597
ag2
(g6
S'!z\xaa\xa9(?\xa7?'
p5797
tp5798
Rp5799
aa(lp5800
F-2.298087866342458
ag2
(g6
S'\x8d\xa3\xcb\x83]I\xa7?'
p5801
tp5802
Rp5803
aa(lp5804
F-2.275753461223246
ag2
(g6
S'{\x00e\xed\x0f \xa7?'
p5805
tp5806
Rp5807
aa(lp5808
F-2.262055466116197
ag2
(g6
S'-\x90\x81\xcd\x89\xc7\xa7?'
p5809
tp5810
Rp5811
aa(lp5812
F-2.2382949062364905
ag2
(g6
S'E=\xdf\xf7\xb6\xf1\xa7?'
p5813
tp5814
Rp5815
aa(lp5816
F-2.252220263621551
ag2
(g6
S'\xeaK\x80\x8e\\]\xa8?'
p5817
tp5818
Rp5819
aa(lp5820
F-2.27535338842722
ag2
(g6
S'\x99\xba6\xf6\x90\x80\xa8?'
p5821
tp5822
Rp5823
aa(lp5824
F-2.2588568363365797
ag2
(g6
S'\xdd\x90/TKf\xa8?'
p5825
tp5826
Rp5827
aa(lp5828
F-2.2043941640723896
ag2
(g6
S'\xbe\xdaa\n\x94\xeb\xa8?'
p5829
tp5830
Rp5831
aa(lp5832
F-2.1954879940454575
ag2
(g6
S'\x19\x81\xbe)Vo\xa8?'
p5833
tp5834
Rp5835
aa(lp5836
F-2.2229368256373396
ag2
(g6
S'B\x1d\xbe\xf9n,\xa8?'
p5837
tp5838
Rp5839
aa(lp5840
F-2.201055953955228
ag2
(g6
S'|\xb0\xac\xdb\xc08\xa8?'
p5841
tp5842
Rp5843
aa(lp5844
F-2.232293393916935
ag2
(g6
S'\x1ex\x91\x8b\x99i\xa8?'
p5845
tp5846
Rp5847
aa(lp5848
F-2.2743995271335
ag2
(g6
S'\xc8T\xb2\xcb\xaa\xa4\xa8?'
p5849
tp5850
Rp5851
aa(lp5852
F-2.223788651330364
ag2
(g6
S'\x92UK\xad\xe1\\\xa8?'
p5853
tp5854
Rp5855
aa(lp5856
F-2.23069086672112
ag2
(g6
S'\xae\xcf\xc6\x07\xa6J\xa8?'
p5857
tp5858
Rp5859
aa(lp5860
F-2.2181256678758925
ag2
(g6
S'k\xec\xdch\xc6\xa8\xa8?'
p5861
tp5862
Rp5863
aa(lp5864
F-2.263459040051175
ag2
(g6
S'mi\x13\xb3\xca\x9c\xa8?'
p5865
tp5866
Rp5867
aa(lp5868
F-2.2954970677675823
ag2
(g6
S'#\xd0\x8b\r\x94\xaa\xa8?'
p5869
tp5870
Rp5871
aa(lp5872
F-2.154129670570194
ag2
(g6
S'\x8eW\x10\xae\xab~\xa8?'
p5873
tp5874
Rp5875
aa(lp5876
F-2.2276338378088756
ag2
(g6
S'e\x9ee\xa6\x88\x8e\xa8?'
p5877
tp5878
Rp5879
aa(lp5880
F-2.250950953692844
ag2
(g6
S'\x9c=\xa0\x96\xb7\xc4\xa8?'
p5881
tp5882
Rp5883
aa(lp5884
F-2.2530804293715367
ag2
(g6
S'\xe0\xceG\xd6Io\xa8?'
p5885
tp5886
Rp5887
aa(lp5888
F-2.1989800994184425
ag2
(g6
S'\xf5\xaa\x97\xef\xb2\xad\xa8?'
p5889
tp5890
Rp5891
aa(lp5892
F-2.212473863019632
ag2
(g6
S'\xe2S\x04K\x1bf\xa8?'
p5893
tp5894
Rp5895
aa(lp5896
F-2.2671965861164414
ag2
(g6
S',\xb8\x00\x95q\x13\xa8?'
p5897
tp5898
Rp5899
aa(lp5900
F-2.2382867899637486
ag2
(g6
S'\xe9\x89\xe5F?3\xa8?'
p5901
tp5902
Rp5903
aa(lp5904
F-2.261286728185548
ag2
(g6
S';\x1d\xaf"1\x00\xa8?'
p5905
tp5906
Rp5907
aa(lp5908
F-2.2082949131731278
ag2
(g6
S'o\xdb&\xe24r\xa8?'
p5909
tp5910
Rp5911
aa(lp5912
F-2.223455802227195
ag2
(g6
S'\xa995d\nv\xa8?'
p5913
tp5914
Rp5915
aa(lp5916
F-2.1678509824742203
ag2
(g6
S'\xa3\xdcS\x19ET\xa8?'
p5917
tp5918
Rp5919
aa(lp5920
F-2.262097203733759
ag2
(g6
S'v\xcf\xd3\xbe\x84}\xa8?'
p5921
tp5922
Rp5923
aa(lp5924
F-2.304818464247966
ag2
(g6
S'm\x96\xfc|x\x9b\xa8?'
p5925
tp5926
Rp5927
aa(lp5928
F-2.2966449432843725
ag2
(g6
S'\x86t\x8a\xe1\xa3}\xa8?'
p5929
tp5930
Rp5931
aa(lp5932
F-2.2369441328147635
ag2
(g6
S'6\x8f0\xc0\x84~\xa8?'
p5933
tp5934
Rp5935
aa(lp5936
F-2.1588103442143263
ag2
(g6
S'\xd1\x87c\xbb\xed\x08\xa9?'
p5937
tp5938
Rp5939
aa(lp5940
F-2.1492676694307553
ag2
(g6
S'\xfe\xd54j\xa5A\xa9?'
p5941
tp5942
Rp5943
aa(lp5944
F-2.263989426525626
ag2
(g6
S'\xfd\xee\xdd\x8a\xe1\x86\xa9?'
p5945
tp5946
Rp5947
aa(lp5948
F-2.1371370737877275
ag2
(g6
S'&J\x1e\x8d@\xa4\xa9?'
p5949
tp5950
Rp5951
aa(lp5952
F-2.124054785091108
ag2
(g6
S'\x98a\xf9\x82\x8b\xf3\xa9?'
p5953
tp5954
Rp5955
aa(lp5956
F-2.137479479402256
ag2
(g6
S'\x89\xef\xa3\x95X\x13\xaa?'
p5957
tp5958
Rp5959
aa(lp5960
F-2.148237231054963
ag2
(g6
S'\x9d]xV\xeaK\xaa?'
p5961
tp5962
Rp5963
aa(lp5964
F-2.2214090686936503
ag2
(g6
S'\xc3\x98\x13q\xf8B\xaa?'
p5965
tp5966
Rp5967
aa(lp5968
F-2.181140431140391
ag2
(g6
S'\xd8\x1a\xa6(\x1a\x85\xa9?'
p5969
tp5970
Rp5971
aa(lp5972
F-2.1476292638462877
ag2
(g6
S'\xcf\xfc\xe22\x1e\xb9\xa9?'
p5973
tp5974
Rp5975
aa(lp5976
F-2.0826390139815514
ag2
(g6
S'\x96\xca\n\xea\xf6\xc9\xa9?'
p5977
tp5978
Rp5979
aa(lp5980
F-2.234447165457202
ag2
(g6
S'\xf7Z\xa0\xa1\x87\x08\xaa?'
p5981
tp5982
Rp5983
aa(lp5984
F-2.303239704650612
ag2
(g6
S'\xdd\xed\xb7\x94\x9a\xfc\xa9?'
p5985
tp5986
Rp5987
aa(lp5988
F-2.181220971440346
ag2
(g6
S"\x82'A\xc8M\x08\xaa?"
p5989
tp5990
Rp5991
aa(lp5992
F-2.2303750231115687
ag2
(g6
S'nrU\x88\xe6Z\xaa?'
p5993
tp5994
Rp5995
aa(lp5996
F-2.2480722372036017
ag2
(g6
S'\xa6\xf4\xd1Ch3\xaa?'
p5997
tp5998
Rp5999
aa(lp6000
F-2.3621970019429646
ag2
(g6
S'o\xa00\x98\x97F\xaa?'
p6001
tp6002
Rp6003
aa(lp6004
F-2.333595376136761
ag2
(g6
S'\xd6g\x8am\x15"\xaa?'
p6005
tp6006
Rp6007
aa(lp6008
F-2.119166850204439
ag2
(g6
S'\xe6z#QA\xf9\xa9?'
p6009
tp6010
Rp6011
aa(lp6012
F-2.1634020304625667
ag2
(g6
S'\xb4\xc3\xa43\x9d\xe5\xa9?'
p6013
tp6014
Rp6015
aa(lp6016
F-2.1919183351866036
ag2
(g6
S'\xe1\x18#\xfa\xab\xeb\xa9?'
p6017
tp6018
Rp6019
aa(lp6020
F-2.1519999373417473
ag2
(g6
S'\x86\xdc\xc4ZM\xab\xa9?'
p6021
tp6022
Rp6023
aa(lp6024
F-2.1550908697314926
ag2
(g6
S'\r\xcd\xc3r\x92p\xaa?'
p6025
tp6026
Rp6027
aa(lp6028
F-2.2767684489081828
ag2
(g6
S'\x81\x92M\x13n\xe9\xa9?'
p6029
tp6030
Rp6031
aa(lp6032
F-2.1493295645357473
ag2
(g6
S'b\xd7\xe0\xeeu9\xaa?'
p6033
tp6034
Rp6035
aa(lp6036
F-2.2765538628634214
ag2
(g6
S'7\xd6\xb1\xb97\x82\xaa?'
p6037
tp6038
Rp6039
aa(lp6040
F-2.280797576663588
ag2
(g6
S'~\x9c\x14\xdc-\x8e\xaa?'
p6041
tp6042
Rp6043
aa(lp6044
F-2.1716285573791967
ag2
(g6
S'*\xb6\xab\xda\xd4\x8f\xaa?'
p6045
tp6046
Rp6047
aa(lp6048
F-2.2416096571222797
ag2
(g6
S'y\xd1jo\x9aX\xaa?'
p6049
tp6050
Rp6051
aa(lp6052
F-2.15116694827747
ag2
(g6
S't\xad\xf4:o\x1e\xaa?'
p6053
tp6054
Rp6055
aa(lp6056
F-2.2404688856674353
ag2
(g6
S'\x97\xed\xe2\xde\xe8\x0f\xaa?'
p6057
tp6058
Rp6059
aa(lp6060
F-2.1589360445828065
ag2
(g6
S'R\xe4\xfa\xacf$\xaa?'
p6061
tp6062
Rp6063
aa(lp6064
F-2.2365717622188734
ag2
(g6
S'\x8d\xba\x02H\x1e8\xaa?'
p6065
tp6066
Rp6067
aa(lp6068
F-2.1773455754438444
ag2
(g6
S'/\xc6t\x96\xac\xf8\xa9?'
p6069
tp6070
Rp6071
aa(lp6072
F-2.178937965179457
ag2
(g6
S'\xf8P\xf2h\x15;\xaa?'
p6073
tp6074
Rp6075
aa(lp6076
F-2.178958393955861
ag2
(g6
S';\xe7\x16\xaa\x97\n\xaa?'
p6077
tp6078
Rp6079
aa(lp6080
F-2.1727785397325285
ag2
(g6
S'\xda\x03Me\x82[\xaa?'
p6081
tp6082
Rp6083
aa(lp6084
F-2.3008102329969993
ag2
(g6
S'8{\xd0d\xa9\x1e\xaa?'
p6085
tp6086
Rp6087
aa(lp6088
F-2.289005620874834
ag2
(g6
S'\xb2^=p\xe8q\xaa?'
p6089
tp6090
Rp6091
aa(lp6092
F-2.2295900479591824
ag2
(g6
S'i\xd7\x9b\x99\xe78\xaa?'
p6093
tp6094
Rp6095
aa(lp6096
F-2.297398599959479
ag2
(g6
S'\xecD\x93\x0c\x1c\x91\xa9?'
p6097
tp6098
Rp6099
aa(lp6100
F-2.238246207457974
ag2
(g6
S"\xde'\xfa\xcb\xee\x1c\xa9?"
p6101
tp6102
Rp6103
aa(lp6104
F-2.2165795039324614
ag2
(g6
S'$\xc6*\xc8D\x13\xa9?'
p6105
tp6106
Rp6107
aa(lp6108
F-2.1735606166254158
ag2
(g6
S'\x95i\xf7 S8\xa9?'
p6109
tp6110
Rp6111
aa(lp6112
F-2.1569284082471336
ag2
(g6
S'\x93d[#\xa6\xf7\xa8?'
p6113
tp6114
Rp6115
aa(lp6116
F-2.1889099912568706
ag2
(g6
S'\x07\xf7\xd7\xb6\x18\xb2\xa8?'
p6117
tp6118
Rp6119
aa(lp6120
F-2.276053941498888
ag2
(g6
S'X\x97J\x02\x9d\xa9\xa8?'
p6121
tp6122
Rp6123
aa(lp6124
F-2.179997633605248
ag2
(g6
S'\xef\x1e\xac\xacVs\xa8?'
p6125
tp6126
Rp6127
aa(lp6128
F-2.242284316324502
ag2
(g6
S'\xe0\xb3H~\x10l\xa8?'
p6129
tp6130
Rp6131
aa(lp6132
F-2.2295257762029386
ag2
(g6
S'\xb1\x177UL\xea\xa7?'
p6133
tp6134
Rp6135
aa(lp6136
F-2.1698083145468674
ag2
(g6
S'\x8bq\x00\x12\xca\xe8\xa7?'
p6137
tp6138
Rp6139
aa(lp6140
F-2.3060271677971507
ag2
(g6
S'X\xf8tEz\x88\xa7?'
p6141
tp6142
Rp6143
aa(lp6144
F-2.3639731713417453
ag2
(g6
S'\x8a0\xb0\xcc2g\xa7?'
p6145
tp6146
Rp6147
aa(lp6148
F-2.2938830434074693
ag2
(g6
S'\xe3\x06hm"\x04\xa7?'
p6149
tp6150
Rp6151
aa(lp6152
F-2.2614315271567937
ag2
(g6
S'\x85lQ\t\x1a\xc0\xa6?'
p6153
tp6154
Rp6155
aa(lp6156
F-2.3045415464302588
ag2
(g6
S'\xb2\x18\xcd\x8b,L\xa6?'
p6157
tp6158
Rp6159
aa(lp6160
F-2.200799301677469
ag2
(g6
S'C\x88\xfe\xd7\x14\x89\xa6?'
p6161
tp6162
Rp6163
aa(lp6164
F-2.3027046363861006
ag2
(g6
S'\xe4\x11j\xbc{\xaa\xa6?'
p6165
tp6166
Rp6167
aa(lp6168
F-2.2276549805021
ag2
(g6
S'\xc9\x1d\xde\xf4]?\xa6?'
p6169
tp6170
Rp6171
aa(lp6172
F-2.1705956364208956
ag2
(g6
S'~SWB\xd7\xf1\xa5?'
p6173
tp6174
Rp6175
aa(lp6176
F-2.1829462987328587
ag2
(g6
S'EI3Z\x05\xb9\xa5?'
p6177
tp6178
Rp6179
aa(lp6180
F-2.325156526198072
ag2
(g6
S'\xfc\xa3\xe8G\xcc\xc7\xa5?'
p6181
tp6182
Rp6183
aa(lp6184
F-2.202408122926413
ag2
(g6
S'\x12=\xce\x83\xb1(\xa6?'
p6185
tp6186
Rp6187
aa(lp6188
F-2.1993603830139525
ag2
(g6
S'/\xb0m\xa8\xec\xdd\xa5?'
p6189
tp6190
Rp6191
aa(lp6192
F-2.2044483560628816
ag2
(g6
S's\x85\xba\xda\xaa\xf8\xa5?'
p6193
tp6194
Rp6195
aa(lp6196
F-2.277641932845788
ag2
(g6
S'K:\xa3[a\xb3\xa5?'
p6197
tp6198
Rp6199
aa(lp6200
F-2.4443501959867673
ag2
(g6
S'\x86\xa5\xb61\xda=\xa5?'
p6201
tp6202
Rp6203
aa(lp6204
F-2.268517690476713
ag2
(g6
S"\x00\xf7\xe8'\xa5\xfe\xa4?"
p6205
tp6206
Rp6207
aa(lp6208
F-2.3540384353128854
ag2
(g6
S'\x84\x02\x7fR\x9e\xdb\xa4?'
p6209
tp6210
Rp6211
aa(lp6212
F-2.3336222024652518
ag2
(g6
S'9\xbd\x911\xae\xad\xa4?'
p6213
tp6214
Rp6215
aa(lp6216
F-2.2206399449650163
ag2
(g6
S'0A%;\xf8\x88\xa4?'
p6217
tp6218
Rp6219
aa(lp6220
F-2.3543833737934268
ag2
(g6
S'\x9e\nXY\xdd\x85\xa4?'
p6221
tp6222
Rp6223
aa(lp6224
F-2.2913581426601426
ag2
(g6
S'\x7f\xc7\xd8\xff!\x99\xa4?'
p6225
tp6226
Rp6227
aa(lp6228
F-2.411294075003441
ag2
(g6
S'1\x16S|8\xe7\xa4?'
p6229
tp6230
Rp6231
aa(lp6232
F-2.3137462335160994
ag2
(g6
S'\xc9\x07G\x157\xb2\xa4?'
p6233
tp6234
Rp6235
aa(lp6236
F-2.2819506471390945
ag2
(g6
S'\x866\x13\xaa\xdf#\xa5?'
p6237
tp6238
Rp6239
aa(lp6240
F-2.2129290383616147
ag2
(g6
S'\x81\xbb_m\xd4(\xa5?'
p6241
tp6242
Rp6243
aa(lp6244
F-2.2703694996655694
ag2
(g6
S'=\x87\x0eK\xa8\xfc\xa4?'
p6245
tp6246
Rp6247
aa(lp6248
F-2.248183696809615
ag2
(g6
S'\xed\x1d\xa3&\x920\xa5?'
p6249
tp6250
Rp6251
aa(lp6252
F-2.343848201701015
ag2
(g6
S'6\xcb\x1eE\xa4R\xa5?'
p6253
tp6254
Rp6255
aa(lp6256
F-2.2670726952259024
ag2
(g6
S'\xee@\xb1\xf8\xc3\x10\xa5?'
p6257
tp6258
Rp6259
aa(lp6260
F-2.2876823017485046
ag2
(g6
S"\x01|\xf0^\xba'\xa5?"
p6261
tp6262
Rp6263
aa(lp6264
F-2.3224763421139594
ag2
(g6
S'9\x07u\x97\xaa,\xa5?'
p6265
tp6266
Rp6267
aa(lp6268
F-2.3015045090872914
ag2
(g6
S'\xb9\xfdqkf\xc8\xa4?'
p6269
tp6270
Rp6271
aa(lp6272
F-2.3327782962004933
ag2
(g6
S'\x0e\xf3\xa4i\xfb\x8b\xa4?'
p6273
tp6274
Rp6275
aa(lp6276
F-2.2352402029836744
ag2
(g6
S'\x99|\xfd\xa8\xca\xa9\xa4?'
p6277
tp6278
Rp6279
aa(lp6280
F-2.2724707856175255
ag2
(g6
S'\xcf2\xa3H\xb8n\xa4?'
p6281
tp6282
Rp6283
aa(lp6284
F-2.298632482083818
ag2
(g6
S'Z\r\xa8\xfb\xe3\xe8\xa4?'
p6285
tp6286
Rp6287
aa(lp6288
F-2.281996849624863
ag2
(g6
S'I\x8b\x91<o\x87\xa4?'
p6289
tp6290
Rp6291
aa(lp6292
F-2.253249687213476
ag2
(g6
S'\xb75\xa6\x1b\x1a.\xa4?'
p6293
tp6294
Rp6295
aa(lp6296
F-2.294703402235694
ag2
(g6
S'GU\xafxS\xca\xa3?'
p6297
tp6298
Rp6299
aa(lp6300
F-2.2443869518899606
ag2
(g6
S'\xbb\xdf\xc6\x92\xcd\xc8\xa3?'
p6301
tp6302
Rp6303
aa(lp6304
F-2.3116159600679955
ag2
(g6
S'\xda\xed\x81xW\xc0\xa3?'
p6305
tp6306
Rp6307
aa(lp6308
F-2.1755108158782717
ag2
(g6
S'k\xf3\xf5RQ\xd3\xa3?'
p6309
tp6310
Rp6311
aa(lp6312
F-2.2878409123357817
ag2
(g6
S'\x9eL%G\x98\xd7\xa3?'
p6313
tp6314
Rp6315
aa(lp6316
F-2.3049509109130923
ag2
(g6
S'\x19W\x8f\xb3\xe5!\xa4?'
p6317
tp6318
Rp6319
aa(lp6320
F-2.232947670316557
ag2
(g6
S'!\xc4\xc3Z$+\xa4?'
p6321
tp6322
Rp6323
aa(lp6324
F-2.2966857250181896
ag2
(g6
S'\\\xf8\x16\xfcc\x96\xa4?'
p6325
tp6326
Rp6327
aa(lp6328
F-2.331626821871868
ag2
(g6
S'\x08\xd9\xcaQCF\xa4?'
p6329
tp6330
Rp6331
aa(lp6332
F-2.295904367228601
ag2
(g6
S'\xd0\x90\xbc\xdd\xdf\x1c\xa4?'
p6333
tp6334
Rp6335
aa(lp6336
F-2.228897630073678
ag2
(g6
S'b\xc5(\xd7\x02\\\xa4?'
p6337
tp6338
Rp6339
aa(lp6340
F-2.236658904454265
ag2
(g6
S'\xd0\x0bv\x87sq\xa4?'
p6341
tp6342
Rp6343
aa(lp6344
F-2.3358152523045153
ag2
(g6
S'\xb5\xe5\xa5\xbf\x9fQ\xa4?'
p6345
tp6346
Rp6347
aa(lp6348
F-2.2267894854922776
ag2
(g6
S'\xa2b\xe8\xe3J\x1e\xa4?'
p6349
tp6350
Rp6351
aa(lp6352
F-2.278056926789019
ag2
(g6
S'{\xb4K\xa3\xb6\x1c\xa4?'
p6353
tp6354
Rp6355
aa(lp6356
F-2.3569680130074455
ag2
(g6
S'\xd17\xba\x08k3\xa4?'
p6357
tp6358
Rp6359
aa(lp6360
F-2.2480686816588746
ag2
(g6
S'\xd1\x92\x90L\x1d\xad\xa3?'
p6361
tp6362
Rp6363
aa(lp6364
F-2.2418401040339138
ag2
(g6
S'Q\\oM]\xc9\xa3?'
p6365
tp6366
Rp6367
aa(lp6368
F-2.3751509160291504
ag2
(g6
S'u\xc0*\xdd\xf4\xb2\xa3?'
p6369
tp6370
Rp6371
aa(lp6372
F-2.320166720849576
ag2
(g6
S'\xa0\xd2\xf1\x01\xc5\xbc\xa3?'
p6373
tp6374
Rp6375
aa(lp6376
F-2.4393200895375307
ag2
(g6
S'\x9d\x07D\xce1\xd1\xa3?'
p6377
tp6378
Rp6379
aa(lp6380
F-2.454341526959634
ag2
(g6
S'\xaf\x7f\x99\xc9\xba\xb6\xa3?'
p6381
tp6382
Rp6383
aa(lp6384
F-2.2878707116173627
ag2
(g6
S'\x13\xed\xa6Y\xc8\x0b\xa4?'
p6385
tp6386
Rp6387
aa(lp6388
F-2.254805959282703
ag2
(g6
S'\xc3\xa8\x94\x08 \xcc\xa3?'
p6389
tp6390
Rp6391
aa(lp6392
F-2.359682109814564
ag2
(g6
S'9R\xf4\xd2g\xdd\xa3?'
p6393
tp6394
Rp6395
aa(lp6396
F-2.2711912938253405
ag2
(g6
S'\xff\xe1PU\xd5\x17\xa4?'
p6397
tp6398
Rp6399
aa(lp6400
F-2.3094606108058313
ag2
(g6
S'o\x15\x08\x83\xc3L\xa4?'
p6401
tp6402
Rp6403
aa(lp6404
F-2.310690050630096
ag2
(g6
S'|+\xb1\x94Z#\xa4?'
p6405
tp6406
Rp6407
aa(lp6408
F-2.3323741325750382
ag2
(g6
S'\xeb\x0fF\xf1T\x13\xa4?'
p6409
tp6410
Rp6411
aa(lp6412
F-2.279102199841815
ag2
(g6
S'= \xb3\xf6\x018\xa4?'
p6413
tp6414
Rp6415
aa(lp6416
F-2.2660058074408886
ag2
(g6
S'\x08\xf9n5)3\xa4?'
p6417
tp6418
Rp6419
aa(lp6420
F-2.3182125153733404
ag2
(g6
S'\xb5\x15Dv\xa1p\xa4?'
p6421
tp6422
Rp6423
aa(lp6424
F-2.246336623881158
ag2
(g6
S'kL\x95\xe3Mu\xa4?'
p6425
tp6426
Rp6427
aa(lp6428
F-2.2909772699164295
ag2
(g6
S'e\xb0,3\r\xeb\xa4?'
p6429
tp6430
Rp6431
aa(lp6432
F-2.242846874531787
ag2
(g6
S'\xf5_s39\xf0\xa4?'
p6433
tp6434
Rp6435
aa(lp6436
F-2.237777895832292
ag2
(g6
S' L\x81jt\xb2\xa4?'
p6437
tp6438
Rp6439
aa(lp6440
F-2.2466836239594397
ag2
(g6
S'\xe7\x1c]kt\xe2\xa4?'
p6441
tp6442
Rp6443
aa(lp6444
F-2.315548993296113
ag2
(g6
S'Wn\x89Vi\xd7\xa4?'
p6445
tp6446
Rp6447
aa(lp6448
F-2.1793316948817774
ag2
(g6
S'\xa3\xf4\x8e\xe1\xff\x14\xa5?'
p6449
tp6450
Rp6451
aa(lp6452
F-2.244615954200857
ag2
(g6
S'}\xf8\x18T\x86m\xa5?'
p6453
tp6454
Rp6455
aa(lp6456
F-2.3329916724835993
ag2
(g6
S'N\x84W\ri\x7f\xa5?'
p6457
tp6458
Rp6459
aa(lp6460
F-2.284162623621943
ag2
(g6
S'\xc3\xd9D;Xc\xa5?'
p6461
tp6462
Rp6463
aa(lp6464
F-2.2216916210825497
ag2
(g6
S'u\x1b\xf1\xe4\xb3I\xa5?'
p6465
tp6466
Rp6467
aa(lp6468
F-2.1826680888035552
ag2
(g6
S'^\x03\x1b\x8b/\x05\xa5?'
p6469
tp6470
Rp6471
aa(lp6472
F-2.2859976177253567
ag2
(g6
S'\xaeu\x02\xd0\x12C\xa5?'
p6473
tp6474
Rp6475
aa(lp6476
F-2.276979987817208
ag2
(g6
S'\x1a\xbe\xea\x9f\xb7\xf9\xa4?'
p6477
tp6478
Rp6479
aa.