(lp0
cnumpy.core.multiarray
scalar
p1
(cnumpy
dtype
p2
(S'f8'
p3
I0
I1
tp4
Rp5
(I3
S'<'
p6
NNNI-1
I-1
I0
tp7
bS'\xc2w\xe2~{\xcb @'
p8
tp9
Rp10
ag1
(g5
S'\xfb\xeaF\x9d\xda\xf4\x1e@'
p11
tp12
Rp13
ag13
ag1
(g5
S'<\xa0\xcc-q\x97(@'
p14
tp15
Rp16
ag16
ag16
ag1
(g5
S':q\x07\xb9\x19\xf5"@'
p17
tp18
Rp19
ag1
(g5
S'6N\xe3\xe2J\xe3\x1d@'
p20
tp21
Rp22
ag22
a.