(lp0
(lp1
F-1.9
aF0.1
aa(lp2
F-1.908204278185168
acnumpy.core.multiarray
scalar
p3
(cnumpy
dtype
p4
(S'f8'
p5
I0
I1
tp6
Rp7
(I3
S'<'
p8
NNNI-1
I-1
I0
tp9
bS'x\xbe\xc0y\xae\xc2\xbb?'
p10
tp11
Rp12
aag2
a(lp13
F-1.9696252958203937
ag3
(g7
S'=oP\xef\xbb\xbb\xbc?'
p14
tp15
Rp16
aag13
ag13
a(lp17
F-2.0137869625161184
ag3
(g7
S'\xd5\x86F#WE\xb9?'
p18
tp19
Rp20
aa(lp21
F-2.0741253241709905
ag3
(g7
S'\xd0\xbd\x12ze\xbd\xb4?'
p22
tp23
Rp24
aag21
a.