(lp0
cnumpy.core.multiarray
scalar
p1
(cnumpy
dtype
p2
(S'f8'
p3
I0
I1
tp4
Rp5
(I3
S'<'
p6
NNNI-1
I-1
I0
tp7
bS'\xd2#\xef\xc5+\xa29@'
p8
tp9
Rp10
ag1
(g5
S'W\xcf\x18Y\x1d\xe82@'
p11
tp12
Rp13
ag13
ag13
ag13
ag1
(g5
S'\x0e@\xbd\x10\xa0)*@'
p14
tp15
Rp16
ag1
(g5
S'\xfa\xda\xf1\xe9\x1c\xe7\t@'
p17
tp18
Rp19
ag19
ag19
a.